(iltl_mission.planner
MonotonePlanner
p0
(dp1
S'monotone_system'
p2
(imonotone_system
MonotoneSystem
p3
(dp4
S'A'
p5
cnumpy.core.multiarray
_reconstruct
p6
(cnumpy
ndarray
p7
(I0
tp8
S'b'
p9
tp10
Rp11
(I1
(I2
I2
tp12
cnumpy
dtype
p13
(S'f8'
p14
I0
I1
tp15
Rp16
(I3
S'<'
p17
NNNI-1
I-1
I0
tp18
bI00
S'\x00\x00\x00\x00\x00\x00\x00\x00\x00\x00\x00\x00\x00\x00\x00\x00\x00\x00\x00\x00\x00\x00\x00\x00\x00\x00\x00\x00\x00\x00\x00\x00'
p19
tp20
bsS'inputs'
p21
(lp22
g6
(g7
(I0
tp23
g9
tp24
Rp25
(I1
(I2
tp26
g13
(S'i8'
p27
I0
I1
tp28
Rp29
(I3
S'<'
p30
NNNI-1
I-1
I0
tp31
bI00
S'\x00\x00\x00\x00\x00\x00\x00\x00\x00\x00\x00\x00\x00\x00\x00\x00'
p32
tp33
bag6
(g7
(I0
tp34
g9
tp35
Rp36
(I1
(I2
tp37
g16
I00
S'\x9a\x99\x99\x99\x99\x99\xc9?\x00\x00\x00\x00\x00\x00\x00\x00'
p38
tp39
bag6
(g7
(I0
tp40
g9
tp41
Rp42
(I1
(I2
tp43
g16
I00
S'\x9a\x99\x99\x99\x99\x99\xc9\xbf\x00\x00\x00\x00\x00\x00\x00\x00'
p44
tp45
bag6
(g7
(I0
tp46
g9
tp47
Rp48
(I1
(I2
tp49
g16
I00
S'\x00\x00\x00\x00\x00\x00\x00\x00\x9a\x99\x99\x99\x99\x99\xc9?'
p50
tp51
bag6
(g7
(I0
tp52
g9
tp53
Rp54
(I1
(I2
tp55
g16
I00
S'\x00\x00\x00\x00\x00\x00\x00\x00\x9a\x99\x99\x99\x99\x99\xc9\xbf'
p56
tp57
bag6
(g7
(I0
tp58
g9
tp59
Rp60
(I1
(I2
tp61
g16
I00
S'\x9a\x99\x99\x99\x99\x99\xc9?\x9a\x99\x99\x99\x99\x99\xc9?'
p62
tp63
bag6
(g7
(I0
tp64
g9
tp65
Rp66
(I1
(I2
tp67
g16
I00
S'\x9a\x99\x99\x99\x99\x99\xc9?\x9a\x99\x99\x99\x99\x99\xc9\xbf'
p68
tp69
bag6
(g7
(I0
tp70
g9
tp71
Rp72
(I1
(I2
tp73
g16
I00
S'\x9a\x99\x99\x99\x99\x99\xc9\xbf\x9a\x99\x99\x99\x99\x99\xc9?'
p74
tp75
bag6
(g7
(I0
tp76
g9
tp77
Rp78
(I1
(I2
tp79
g16
I00
S'\x9a\x99\x99\x99\x99\x99\xc9\xbf\x9a\x99\x99\x99\x99\x99\xc9\xbf'
p80
tp81
basS'elements'
p82
(lp83
(I3
I4
I11
I12
tp84
a(I14
I15
I22
I23
tp85
a(I19
I20
I27
I28
tp86
a(I5
I6
I13
I14
tp87
a(I44
I45
I52
I53
tp88
a(I27
I28
I35
I36
tp89
a(I36
I37
I44
I45
tp90
a(I41
I42
I49
I50
tp91
a(I46
I47
I54
I55
tp92
a(I12
I13
I20
I21
tp93
a(I18
I19
I26
I27
tp94
a(I51
I52
I59
I60
tp95
a(I54
I55
I62
I63
tp96
a(I1
I2
I9
I10
tp97
a(I2
I3
I10
I11
tp98
a(I34
I35
I42
I43
tp99
a(I24
I25
I32
I33
tp100
a(I13
I14
I21
I22
tp101
a(I8
I9
I16
I17
tp102
a(I35
I36
I43
I44
tp103
a(I38
I39
I46
I47
tp104
a(I22
I23
I30
I31
tp105
a(I52
I53
I60
I61
tp106
a(I20
I21
I28
I29
tp107
a(I11
I12
I19
I20
tp108
a(I43
I44
I51
I52
tp109
a(I17
I18
I25
I26
tp110
a(I42
I43
I50
I51
tp111
a(I16
I17
I24
I25
tp112
a(I21
I22
I29
I30
tp113
a(I4
I5
I12
I13
tp114
a(I9
I10
I17
I18
tp115
a(I30
I31
I38
I39
tp116
a(I40
I41
I48
I49
tp117
a(I26
I27
I34
I35
tp118
a(I28
I29
I36
I37
tp119
a(I10
I11
I18
I19
tp120
a(I50
I51
I58
I59
tp121
a(I33
I34
I41
I42
tp122
a(I37
I38
I45
I46
tp123
a(I0
I1
I8
I9
tp124
a(I29
I30
I37
I38
tp125
a(I32
I33
I40
I41
tp126
a(I49
I50
I57
I58
tp127
a(I48
I49
I56
I57
tp128
a(I25
I26
I33
I34
tp129
a(I6
I7
I14
I15
tp130
a(I45
I46
I53
I54
tp131
a(I53
I54
I61
I62
tp132
asS'area'
p133
(lp134
(F-0.5
F-1.5
tp135
a(F2.5
F1.5
tp136
asS'vectrices'
p137
(lp138
g6
(g7
(I0
tp139
g9
tp140
Rp141
(I1
(I2
tp142
g16
I00
S'\x00\x00\x00\x00\x00\x00\xe0\xbf\x00\x00\x00\x00\x00\x00\xf8\xbf'
p143
tp144
bag6
(g7
(I0
tp145
g9
tp146
Rp147
(I1
(I2
tp148
g16
I00
S'\x00\x00\x00\x00\x00\x00\xe0\xbfI\x92$I\x92$\xf1\xbf'
p149
tp150
bag6
(g7
(I0
tp151
g9
tp152
Rp153
(I1
(I2
tp154
g16
I00
S'\x00\x00\x00\x00\x00\x00\xe0\xbf%I\x92$I\x92\xe4\xbf'
p155
tp156
bag6
(g7
(I0
tp157
g9
tp158
Rp159
(I1
(I2
tp160
g16
I00
S'\x00\x00\x00\x00\x00\x00\xe0\xbf\xe0\xb6m\xdb\xb6m\xcb\xbf'
p161
tp162
bag6
(g7
(I0
tp163
g9
tp164
Rp165
(I1
(I2
tp166
g16
I00
S'\x00\x00\x00\x00\x00\x00\xe0\xbf\xd8\xb6m\xdb\xb6m\xcb?'
p167
tp168
bag6
(g7
(I0
tp169
g9
tp170
Rp171
(I1
(I2
tp172
g16
I00
S'\x00\x00\x00\x00\x00\x00\xe0\xbf$I\x92$I\x92\xe4?'
p173
tp174
bag6
(g7
(I0
tp175
g9
tp176
Rp177
(I1
(I2
tp178
g16
I00
S'\x00\x00\x00\x00\x00\x00\xe0\xbfH\x92$I\x92$\xf1?'
p179
tp180
bag6
(g7
(I0
tp181
g9
tp182
Rp183
(I1
(I2
tp184
g16
I00
S'\x00\x00\x00\x00\x00\x00\xe0\xbf\x00\x00\x00\x00\x00\x00\xf8?'
p185
tp186
bag6
(g7
(I0
tp187
g9
tp188
Rp189
(I1
(I2
tp190
g16
I00
S'\x94$I\x92$I\xb2\xbf\x00\x00\x00\x00\x00\x00\xf8\xbf'
p191
tp192
bag6
(g7
(I0
tp193
g9
tp194
Rp195
(I1
(I2
tp196
g16
I00
S'\x94$I\x92$I\xb2\xbfI\x92$I\x92$\xf1\xbf'
p197
tp198
bag6
(g7
(I0
tp199
g9
tp200
Rp201
(I1
(I2
tp202
g16
I00
S'\x94$I\x92$I\xb2\xbf%I\x92$I\x92\xe4\xbf'
p203
tp204
bag6
(g7
(I0
tp205
g9
tp206
Rp207
(I1
(I2
tp208
g16
I00
S'\x94$I\x92$I\xb2\xbf\xe0\xb6m\xdb\xb6m\xcb\xbf'
p209
tp210
bag6
(g7
(I0
tp211
g9
tp212
Rp213
(I1
(I2
tp214
g16
I00
S'\x94$I\x92$I\xb2\xbf\xd8\xb6m\xdb\xb6m\xcb?'
p215
tp216
bag6
(g7
(I0
tp217
g9
tp218
Rp219
(I1
(I2
tp220
g16
I00
S'\x94$I\x92$I\xb2\xbf$I\x92$I\x92\xe4?'
p221
tp222
bag6
(g7
(I0
tp223
g9
tp224
Rp225
(I1
(I2
tp226
g16
I00
S'\x94$I\x92$I\xb2\xbfH\x92$I\x92$\xf1?'
p227
tp228
bag6
(g7
(I0
tp229
g9
tp230
Rp231
(I1
(I2
tp232
g16
I00
S'\x94$I\x92$I\xb2\xbf\x00\x00\x00\x00\x00\x00\xf8?'
p233
tp234
bag6
(g7
(I0
tp235
g9
tp236
Rp237
(I1
(I2
tp238
g16
I00
S'\xb6m\xdb\xb6m\xdb\xd6?\x00\x00\x00\x00\x00\x00\xf8\xbf'
p239
tp240
bag6
(g7
(I0
tp241
g9
tp242
Rp243
(I1
(I2
tp244
g16
I00
S'\xb6m\xdb\xb6m\xdb\xd6?I\x92$I\x92$\xf1\xbf'
p245
tp246
bag6
(g7
(I0
tp247
g9
tp248
Rp249
(I1
(I2
tp250
g16
I00
S'\xb6m\xdb\xb6m\xdb\xd6?%I\x92$I\x92\xe4\xbf'
p251
tp252
bag6
(g7
(I0
tp253
g9
tp254
Rp255
(I1
(I2
tp256
g16
I00
S'\xb6m\xdb\xb6m\xdb\xd6?\xe0\xb6m\xdb\xb6m\xcb\xbf'
p257
tp258
bag6
(g7
(I0
tp259
g9
tp260
Rp261
(I1
(I2
tp262
g16
I00
S'\xb6m\xdb\xb6m\xdb\xd6?\xd8\xb6m\xdb\xb6m\xcb?'
p263
tp264
bag6
(g7
(I0
tp265
g9
tp266
Rp267
(I1
(I2
tp268
g16
I00
S'\xb6m\xdb\xb6m\xdb\xd6?$I\x92$I\x92\xe4?'
p269
tp270
bag6
(g7
(I0
tp271
g9
tp272
Rp273
(I1
(I2
tp274
g16
I00
S'\xb6m\xdb\xb6m\xdb\xd6?H\x92$I\x92$\xf1?'
p275
tp276
bag6
(g7
(I0
tp277
g9
tp278
Rp279
(I1
(I2
tp280
g16
I00
S'\xb6m\xdb\xb6m\xdb\xd6?\x00\x00\x00\x00\x00\x00\xf8?'
p281
tp282
bag6
(g7
(I0
tp283
g9
tp284
Rp285
(I1
(I2
tp286
g16
I00
S'H\x92$I\x92$\xe9?\x00\x00\x00\x00\x00\x00\xf8\xbf'
p287
tp288
bag6
(g7
(I0
tp289
g9
tp290
Rp291
(I1
(I2
tp292
g16
I00
S'H\x92$I\x92$\xe9?I\x92$I\x92$\xf1\xbf'
p293
tp294
bag6
(g7
(I0
tp295
g9
tp296
Rp297
(I1
(I2
tp298
g16
I00
S'H\x92$I\x92$\xe9?%I\x92$I\x92\xe4\xbf'
p299
tp300
bag6
(g7
(I0
tp301
g9
tp302
Rp303
(I1
(I2
tp304
g16
I00
S'H\x92$I\x92$\xe9?\xe0\xb6m\xdb\xb6m\xcb\xbf'
p305
tp306
bag6
(g7
(I0
tp307
g9
tp308
Rp309
(I1
(I2
tp310
g16
I00
S'H\x92$I\x92$\xe9?\xd8\xb6m\xdb\xb6m\xcb?'
p311
tp312
bag6
(g7
(I0
tp313
g9
tp314
Rp315
(I1
(I2
tp316
g16
I00
S'H\x92$I\x92$\xe9?$I\x92$I\x92\xe4?'
p317
tp318
bag6
(g7
(I0
tp319
g9
tp320
Rp321
(I1
(I2
tp322
g16
I00
S'H\x92$I\x92$\xe9?H\x92$I\x92$\xf1?'
p323
tp324
bag6
(g7
(I0
tp325
g9
tp326
Rp327
(I1
(I2
tp328
g16
I00
S'H\x92$I\x92$\xe9?\x00\x00\x00\x00\x00\x00\xf8?'
p329
tp330
bag6
(g7
(I0
tp331
g9
tp332
Rp333
(I1
(I2
tp334
g16
I00
S'\xdb\xb6m\xdb\xb6m\xf3?\x00\x00\x00\x00\x00\x00\xf8\xbf'
p335
tp336
bag6
(g7
(I0
tp337
g9
tp338
Rp339
(I1
(I2
tp340
g16
I00
S'\xdb\xb6m\xdb\xb6m\xf3?I\x92$I\x92$\xf1\xbf'
p341
tp342
bag6
(g7
(I0
tp343
g9
tp344
Rp345
(I1
(I2
tp346
g16
I00
S'\xdb\xb6m\xdb\xb6m\xf3?%I\x92$I\x92\xe4\xbf'
p347
tp348
bag6
(g7
(I0
tp349
g9
tp350
Rp351
(I1
(I2
tp352
g16
I00
S'\xdb\xb6m\xdb\xb6m\xf3?\xe0\xb6m\xdb\xb6m\xcb\xbf'
p353
tp354
bag6
(g7
(I0
tp355
g9
tp356
Rp357
(I1
(I2
tp358
g16
I00
S'\xdb\xb6m\xdb\xb6m\xf3?\xd8\xb6m\xdb\xb6m\xcb?'
p359
tp360
bag6
(g7
(I0
tp361
g9
tp362
Rp363
(I1
(I2
tp364
g16
I00
S'\xdb\xb6m\xdb\xb6m\xf3?$I\x92$I\x92\xe4?'
p365
tp366
bag6
(g7
(I0
tp367
g9
tp368
Rp369
(I1
(I2
tp370
g16
I00
S'\xdb\xb6m\xdb\xb6m\xf3?H\x92$I\x92$\xf1?'
p371
tp372
bag6
(g7
(I0
tp373
g9
tp374
Rp375
(I1
(I2
tp376
g16
I00
S'\xdb\xb6m\xdb\xb6m\xf3?\x00\x00\x00\x00\x00\x00\xf8?'
p377
tp378
bag6
(g7
(I0
tp379
g9
tp380
Rp381
(I1
(I2
tp382
g16
I00
S'\x92$I\x92$I\xfa?\x00\x00\x00\x00\x00\x00\xf8\xbf'
p383
tp384
bag6
(g7
(I0
tp385
g9
tp386
Rp387
(I1
(I2
tp388
g16
I00
S'\x92$I\x92$I\xfa?I\x92$I\x92$\xf1\xbf'
p389
tp390
bag6
(g7
(I0
tp391
g9
tp392
Rp393
(I1
(I2
tp394
g16
I00
S'\x92$I\x92$I\xfa?%I\x92$I\x92\xe4\xbf'
p395
tp396
bag6
(g7
(I0
tp397
g9
tp398
Rp399
(I1
(I2
tp400
g16
I00
S'\x92$I\x92$I\xfa?\xe0\xb6m\xdb\xb6m\xcb\xbf'
p401
tp402
bag6
(g7
(I0
tp403
g9
tp404
Rp405
(I1
(I2
tp406
g16
I00
S'\x92$I\x92$I\xfa?\xd8\xb6m\xdb\xb6m\xcb?'
p407
tp408
bag6
(g7
(I0
tp409
g9
tp410
Rp411
(I1
(I2
tp412
g16
I00
S'\x92$I\x92$I\xfa?$I\x92$I\x92\xe4?'
p413
tp414
bag6
(g7
(I0
tp415
g9
tp416
Rp417
(I1
(I2
tp418
g16
I00
S'\x92$I\x92$I\xfa?H\x92$I\x92$\xf1?'
p419
tp420
bag6
(g7
(I0
tp421
g9
tp422
Rp423
(I1
(I2
tp424
g16
I00
S'\x92$I\x92$I\xfa?\x00\x00\x00\x00\x00\x00\xf8?'
p425
tp426
bag6
(g7
(I0
tp427
g9
tp428
Rp429
(I1
(I2
tp430
g16
I00
S'$I\x92$I\x92\x00@\x00\x00\x00\x00\x00\x00\xf8\xbf'
p431
tp432
bag6
(g7
(I0
tp433
g9
tp434
Rp435
(I1
(I2
tp436
g16
I00
S'$I\x92$I\x92\x00@I\x92$I\x92$\xf1\xbf'
p437
tp438
bag6
(g7
(I0
tp439
g9
tp440
Rp441
(I1
(I2
tp442
g16
I00
S'$I\x92$I\x92\x00@%I\x92$I\x92\xe4\xbf'
p443
tp444
bag6
(g7
(I0
tp445
g9
tp446
Rp447
(I1
(I2
tp448
g16
I00
S'$I\x92$I\x92\x00@\xe0\xb6m\xdb\xb6m\xcb\xbf'
p449
tp450
bag6
(g7
(I0
tp451
g9
tp452
Rp453
(I1
(I2
tp454
g16
I00
S'$I\x92$I\x92\x00@\xd8\xb6m\xdb\xb6m\xcb?'
p455
tp456
bag6
(g7
(I0
tp457
g9
tp458
Rp459
(I1
(I2
tp460
g16
I00
S'$I\x92$I\x92\x00@$I\x92$I\x92\xe4?'
p461
tp462
bag6
(g7
(I0
tp463
g9
tp464
Rp465
(I1
(I2
tp466
g16
I00
S'$I\x92$I\x92\x00@H\x92$I\x92$\xf1?'
p467
tp468
bag6
(g7
(I0
tp469
g9
tp470
Rp471
(I1
(I2
tp472
g16
I00
S'$I\x92$I\x92\x00@\x00\x00\x00\x00\x00\x00\xf8?'
p473
tp474
bag6
(g7
(I0
tp475
g9
tp476
Rp477
(I1
(I2
tp478
g16
I00
S'\x00\x00\x00\x00\x00\x00\x04@\x00\x00\x00\x00\x00\x00\xf8\xbf'
p479
tp480
bag6
(g7
(I0
tp481
g9
tp482
Rp483
(I1
(I2
tp484
g16
I00
S'\x00\x00\x00\x00\x00\x00\x04@I\x92$I\x92$\xf1\xbf'
p485
tp486
bag6
(g7
(I0
tp487
g9
tp488
Rp489
(I1
(I2
tp490
g16
I00
S'\x00\x00\x00\x00\x00\x00\x04@%I\x92$I\x92\xe4\xbf'
p491
tp492
bag6
(g7
(I0
tp493
g9
tp494
Rp495
(I1
(I2
tp496
g16
I00
S'\x00\x00\x00\x00\x00\x00\x04@\xe0\xb6m\xdb\xb6m\xcb\xbf'
p497
tp498
bag6
(g7
(I0
tp499
g9
tp500
Rp501
(I1
(I2
tp502
g16
I00
S'\x00\x00\x00\x00\x00\x00\x04@\xd8\xb6m\xdb\xb6m\xcb?'
p503
tp504
bag6
(g7
(I0
tp505
g9
tp506
Rp507
(I1
(I2
tp508
g16
I00
S'\x00\x00\x00\x00\x00\x00\x04@$I\x92$I\x92\xe4?'
p509
tp510
bag6
(g7
(I0
tp511
g9
tp512
Rp513
(I1
(I2
tp514
g16
I00
S'\x00\x00\x00\x00\x00\x00\x04@H\x92$I\x92$\xf1?'
p515
tp516
bag6
(g7
(I0
tp517
g9
tp518
Rp519
(I1
(I2
tp520
g16
I00
S'\x00\x00\x00\x00\x00\x00\x04@\x00\x00\x00\x00\x00\x00\xf8?'
p521
tp522
basS'out_state'
p523
I01
sS'points'
p524
g6
(g7
(I0
tp525
g9
tp526
Rp527
(I1
(I64
I2
tp528
g16
I00
S'\x00\x00\x00\x00\x00\x00\xe0\xbf\x00\x00\x00\x00\x00\x00\xf8\xbf\x00\x00\x00\x00\x00\x00\xe0\xbfI\x92$I\x92$\xf1\xbf\x00\x00\x00\x00\x00\x00\xe0\xbf%I\x92$I\x92\xe4\xbf\x00\x00\x00\x00\x00\x00\xe0\xbf\xe0\xb6m\xdb\xb6m\xcb\xbf\x00\x00\x00\x00\x00\x00\xe0\xbf\xd8\xb6m\xdb\xb6m\xcb?\x00\x00\x00\x00\x00\x00\xe0\xbf$I\x92$I\x92\xe4?\x00\x00\x00\x00\x00\x00\xe0\xbfH\x92$I\x92$\xf1?\x00\x00\x00\x00\x00\x00\xe0\xbf\x00\x00\x00\x00\x00\x00\xf8?\x94$I\x92$I\xb2\xbf\x00\x00\x00\x00\x00\x00\xf8\xbf\x94$I\x92$I\xb2\xbfI\x92$I\x92$\xf1\xbf\x94$I\x92$I\xb2\xbf%I\x92$I\x92\xe4\xbf\x94$I\x92$I\xb2\xbf\xe0\xb6m\xdb\xb6m\xcb\xbf\x94$I\x92$I\xb2\xbf\xd8\xb6m\xdb\xb6m\xcb?\x94$I\x92$I\xb2\xbf$I\x92$I\x92\xe4?\x94$I\x92$I\xb2\xbfH\x92$I\x92$\xf1?\x94$I\x92$I\xb2\xbf\x00\x00\x00\x00\x00\x00\xf8?\xb6m\xdb\xb6m\xdb\xd6?\x00\x00\x00\x00\x00\x00\xf8\xbf\xb6m\xdb\xb6m\xdb\xd6?I\x92$I\x92$\xf1\xbf\xb6m\xdb\xb6m\xdb\xd6?%I\x92$I\x92\xe4\xbf\xb6m\xdb\xb6m\xdb\xd6?\xe0\xb6m\xdb\xb6m\xcb\xbf\xb6m\xdb\xb6m\xdb\xd6?\xd8\xb6m\xdb\xb6m\xcb?\xb6m\xdb\xb6m\xdb\xd6?$I\x92$I\x92\xe4?\xb6m\xdb\xb6m\xdb\xd6?H\x92$I\x92$\xf1?\xb6m\xdb\xb6m\xdb\xd6?\x00\x00\x00\x00\x00\x00\xf8?H\x92$I\x92$\xe9?\x00\x00\x00\x00\x00\x00\xf8\xbfH\x92$I\x92$\xe9?I\x92$I\x92$\xf1\xbfH\x92$I\x92$\xe9?%I\x92$I\x92\xe4\xbfH\x92$I\x92$\xe9?\xe0\xb6m\xdb\xb6m\xcb\xbfH\x92$I\x92$\xe9?\xd8\xb6m\xdb\xb6m\xcb?H\x92$I\x92$\xe9?$I\x92$I\x92\xe4?H\x92$I\x92$\xe9?H\x92$I\x92$\xf1?H\x92$I\x92$\xe9?\x00\x00\x00\x00\x00\x00\xf8?\xdb\xb6m\xdb\xb6m\xf3?\x00\x00\x00\x00\x00\x00\xf8\xbf\xdb\xb6m\xdb\xb6m\xf3?I\x92$I\x92$\xf1\xbf\xdb\xb6m\xdb\xb6m\xf3?%I\x92$I\x92\xe4\xbf\xdb\xb6m\xdb\xb6m\xf3?\xe0\xb6m\xdb\xb6m\xcb\xbf\xdb\xb6m\xdb\xb6m\xf3?\xd8\xb6m\xdb\xb6m\xcb?\xdb\xb6m\xdb\xb6m\xf3?$I\x92$I\x92\xe4?\xdb\xb6m\xdb\xb6m\xf3?H\x92$I\x92$\xf1?\xdb\xb6m\xdb\xb6m\xf3?\x00\x00\x00\x00\x00\x00\xf8?\x92$I\x92$I\xfa?\x00\x00\x00\x00\x00\x00\xf8\xbf\x92$I\x92$I\xfa?I\x92$I\x92$\xf1\xbf\x92$I\x92$I\xfa?%I\x92$I\x92\xe4\xbf\x92$I\x92$I\xfa?\xe0\xb6m\xdb\xb6m\xcb\xbf\x92$I\x92$I\xfa?\xd8\xb6m\xdb\xb6m\xcb?\x92$I\x92$I\xfa?$I\x92$I\x92\xe4?\x92$I\x92$I\xfa?H\x92$I\x92$\xf1?\x92$I\x92$I\xfa?\x00\x00\x00\x00\x00\x00\xf8?$I\x92$I\x92\x00@\x00\x00\x00\x00\x00\x00\xf8\xbf$I\x92$I\x92\x00@I\x92$I\x92$\xf1\xbf$I\x92$I\x92\x00@%I\x92$I\x92\xe4\xbf$I\x92$I\x92\x00@\xe0\xb6m\xdb\xb6m\xcb\xbf$I\x92$I\x92\x00@\xd8\xb6m\xdb\xb6m\xcb?$I\x92$I\x92\x00@$I\x92$I\x92\xe4?$I\x92$I\x92\x00@H\x92$I\x92$\xf1?$I\x92$I\x92\x00@\x00\x00\x00\x00\x00\x00\xf8?\x00\x00\x00\x00\x00\x00\x04@\x00\x00\x00\x00\x00\x00\xf8\xbf\x00\x00\x00\x00\x00\x00\x04@I\x92$I\x92$\xf1\xbf\x00\x00\x00\x00\x00\x00\x04@%I\x92$I\x92\xe4\xbf\x00\x00\x00\x00\x00\x00\x04@\xe0\xb6m\xdb\xb6m\xcb\xbf\x00\x00\x00\x00\x00\x00\x04@\xd8\xb6m\xdb\xb6m\xcb?\x00\x00\x00\x00\x00\x00\x04@$I\x92$I\x92\xe4?\x00\x00\x00\x00\x00\x00\x04@H\x92$I\x92$\xf1?\x00\x00\x00\x00\x00\x00\x04@\x00\x00\x00\x00\x00\x00\xf8?'
p529
tp530
bsS'period'
p531
F2.0
sS'noise'
p532
(lp533
g6
(g7
(I0
tp534
g9
tp535
Rp536
(I1
(I2
tp537
g16
I00
S'\x00\x00\x00\x00\x00\x00\x00\x00\x00\x00\x00\x00\x00\x00\x00\x00'
p538
tp539
bag6
(g7
(I0
tp540
g9
tp541
Rp542
(I1
(I2
tp543
g16
I00
S'\x00\x00\x00\x00\x00\x00\x00\x00\x00\x00\x00\x00\x00\x00\x00\x00'
p544
tp545
basS'faces'
p546
(lp547
sS'B'
p548
g6
(g7
(I0
tp549
g9
tp550
Rp551
(I1
(I2
I2
tp552
g16
I00
S'\x00\x00\x00\x00\x00\x00\xf0?\x00\x00\x00\x00\x00\x00\x00\x00\x00\x00\x00\x00\x00\x00\x00\x00\x00\x00\x00\x00\x00\x00\xf0?'
p553
tp554
bsS'out'
p555
S'out'
p556
sbsS'control'
p557
NsS'fts'
p558
ccopy_reg
_reconstructor
p559
(cautomata
BA
p560
c__builtin__
object
p561
Ntp562
Rp563
(dp564
S'node'
p565
(dp566
(g109
VT1_S1
p567
tp568
(dp569
S'apply_control'
p570
g78
ss(g119
VT2_S1
p571
tp572
(dp573
g570
g66
ss(g91
g567
tp574
(dp575
g570
g72
ss(g105
g567
tp576
(dp577
g570
g66
ss(g95
Vaccept_S1
p578
tp579
(dp580
g570
g42
ss(g102
g571
tp581
(dp582
g570
g60
ss(g95
VT0_init
p583
tp584
(dp585
g570
g72
ss(g88
g571
tp586
(dp587
g570
g66
ss(g109
g571
tp588
(dp589
g570
g66
ss(g100
g583
tp590
(dp591
g570
g60
ss(g94
VT2_S1
p592
tp593
(dp594
g570
g60
ss(g132
g583
tp595
(dp596
g570
g72
ss(g100
g571
tp597
(dp598
g570
g60
ss(g107
g583
tp599
(dp600
g570
g60
ss(g102
g583
tp601
(dp602
g570
g60
ss(g84
VT0_init
p603
tp604
(dp605
g570
g60
ss(g116
g603
tp606
(dp607
g570
g66
ss(g114
g567
tp608
(dp609
g570
g66
ss(g110
g571
tp610
(dp611
g570
g60
ss(g129
g578
tp612
(dp613
g570
g48
ss(g122
g567
tp614
(dp615
g570
g72
ss(g130
g583
tp616
(dp617
g570
g66
ss(g88
VT1_S1
p618
tp619
(dp620
g570
g78
ss(g90
g571
tp621
(dp622
g570
g66
ss(g127
g583
tp623
(dp624
g570
g72
ss(g92
g603
tp625
(dp626
g570
g78
ss(g119
g618
tp627
(dp628
g570
g66
ss(g106
g583
tp629
(dp630
g570
g72
ss(g120
g571
tp631
(dp632
g570
g60
ss(g95
g567
tp633
(dp634
g570
g78
ss(g124
g571
tp635
(dp636
g570
g60
ss(g123
g618
tp637
(dp638
g570
g78
ss(g103
g583
tp639
(dp640
g570
g72
ss(g122
g571
tp641
(dp642
g570
g72
ss(g93
g583
tp643
(dp644
g570
g60
ss(g108
g583
tp645
(dp646
g570
g60
ss(g110
g567
tp647
(dp648
g570
g72
ss(g104
g583
tp649
(dp650
g570
g78
ss(g90
g618
tp651
(dp652
g570
g66
ss(g90
g583
tp653
(dp654
g570
g72
ss(g111
g578
tp655
(dp656
g570
g48
ss(g123
g583
tp657
(dp658
g570
g72
ss(g92
g618
tp659
(dp660
g570
g78
ss(g111
g571
tp661
(dp662
g570
g60
ss(g89
g578
tp663
(dp664
g570
g48
ss(g93
g567
tp665
(dp666
g570
g66
ss(g103
g567
tp667
(dp668
g570
g78
ss(g89
g583
tp669
(dp670
g570
g72
ss(g121
g571
tp671
(dp672
g570
g72
ss(g100
g578
tp673
(dp674
g570
g48
ss(g121
g583
tp675
(dp676
g570
g72
ss(g129
g583
tp677
(dp678
g570
g60
ss(g99
g567
tp679
(dp680
g570
g78
ss(g96
g618
tp681
(dp682
g570
g78
ss(g112
g567
tp683
(dp684
g570
g72
ss(g112
g571
tp685
(dp686
g570
g60
ss(g132
g618
tp687
(dp688
g570
g78
ss(g120
g583
tp689
(dp690
g570
g60
ss(g108
g571
tp691
(dp692
g570
g60
ss(g104
g618
tp693
(dp694
g570
g78
ss(g122
g583
tp695
(dp696
g570
g60
ss(g85
g583
tp697
(dp698
g570
g66
ss(g125
g583
tp699
(dp700
g570
g60
ss(g91
g583
tp701
(dp702
g570
g72
ss(g105
g583
tp703
(dp704
g570
g66
ss(g114
g583
tp705
(dp706
g570
g60
ss(g84
VT1_S1
p707
tp708
(dp709
g570
g66
ss(g126
g571
tp710
(dp711
g570
g72
ss(g121
g567
tp712
(dp713
g570
g78
ss(g87
g707
tp714
(dp715
g570
g66
ss(g129
g571
tp716
(dp717
g570
g60
ss(g109
g578
tp718
(dp719
g570
g48
ss(g118
g578
tp720
(dp721
g570
g48
ss(g113
g583
tp722
(dp723
g570
g60
ss(g111
g583
tp724
(dp725
g570
g60
ss(g97
g707
tp726
(dp727
g570
g66
ss(g118
g583
tp728
(dp729
g570
g60
ss(g115
g571
tp730
(dp731
g570
g60
ss(g110
g583
tp732
(dp733
g570
g60
ss(g99
g571
tp734
(dp735
g570
g60
ss(g101
g583
tp736
(dp737
g570
g60
ss(g111
g567
tp738
(dp739
g570
g78
ss(g94
g603
tp740
(dp741
g570
g60
ss(g116
g618
tp742
(dp743
g570
g78
ss(g115
g567
tp744
(dp745
g570
g60
ss(g129
g567
tp746
(dp747
g570
g72
ss(g118
g571
tp748
(dp749
g570
g60
ss(g120
g567
tp750
(dp751
g570
g66
ss(g109
g583
tp752
(dp753
g570
g72
ss(g118
g567
tp754
(dp755
g570
g78
ss(g103
g578
tp756
(dp757
g570
g48
ss(g106
g571
tp758
(dp759
g570
g78
ss(g88
g583
tp760
(dp761
g570
g72
ss(g99
g583
tp762
(dp763
g570
g60
ss(g126
g583
tp764
(dp765
g570
g72
ss(g115
g583
tp766
(dp767
g570
g60
ss(g96
g583
tp768
(dp769
g570
g78
ss(g131
g583
tp770
(dp771
g570
g72
ss(g94
g707
tp772
(dp773
g570
g78
ss(g122
g578
tp774
(dp775
g570
g48
ss(g112
g583
tp776
(dp777
g570
g60
ss(g108
g567
tp778
(dp779
g570
g66
ss(g87
g603
tp780
(dp781
g570
g60
ss(g102
g567
tp782
(dp783
g570
g60
ss(g125
g618
tp784
(dp785
g570
g78
ss(g131
g618
tp786
(dp787
g570
g78
ss(g86
g571
tp788
(dp789
g570
g60
ss(g97
g603
tp790
(dp791
g570
g60
ss(g86
g567
tp792
(dp793
g570
g78
ss(g95
g571
tp794
(dp795
g570
g78
ss(g98
g571
tp796
(dp797
g570
g66
ss(g98
g583
tp798
(dp799
g570
g60
ss(g128
g583
tp800
(dp801
g570
g72
ss(g86
g583
tp802
(dp803
g570
g60
ss(g106
g618
tp804
(dp805
g570
g78
ss(g93
g571
tp806
(dp807
g570
g66
ss(g113
g567
tp808
(dp809
g570
g78
ss(g97
g592
tp810
(dp811
g570
g66
ss(g107
g567
tp812
(dp813
g570
g66
ss(g127
g567
tp814
(dp815
g570
g72
ss(g99
g578
tp816
(dp817
g570
g48
ss(g119
g583
tp818
(dp819
g570
g72
ss(g101
g567
tp820
(dp821
g570
g78
ss(g89
g571
tp822
(dp823
g570
g66
ss(g124
g583
tp824
(dp825
g570
g60
ss(g89
g567
tp826
(dp827
g570
g78
ss(g107
g571
tp828
(dp829
g570
g66
ss(g121
g578
tp830
(dp831
g570
g42
ss(g124
g567
tp832
(dp833
g570
g60
ss(g126
g578
tp834
(dp835
g570
g48
ss(g98
g567
tp836
(dp837
g570
g66
ss(g103
g571
tp838
(dp839
g570
g66
ss(g117
g583
tp840
(dp841
g570
g72
sssS'alpha'
p842
I100
sS'node_dict_factory'
p843
c__builtin__
dict
p844
sS'edge_attr_dict_factory'
p845
g844
sS'succ'
p846
(dp847
g568
(dp848
(g109
g567
tp849
(dp850
S'control'
p851
(dp852
S'[ 0.2 -0.2]'
p853
g6
(g7
(I0
tp854
g9
tp855
Rp856
(I1
(I2
tp857
g16
I00
S'\x9a\x99\x99\x99\x99\x99\xc9?\x9a\x99\x99\x99\x99\x99\xc9\xbf'
p858
tp859
bsS'[ 0.2  0. ]'
p860
g6
(g7
(I0
tp861
g9
tp862
Rp863
(I1
(I2
tp864
g16
I00
S'\x9a\x99\x99\x99\x99\x99\xc9?\x00\x00\x00\x00\x00\x00\x00\x00'
p865
tp866
bsS'[-0.2  0. ]'
p867
g6
(g7
(I0
tp868
g9
tp869
Rp870
(I1
(I2
tp871
g16
I00
S'\x9a\x99\x99\x99\x99\x99\xc9\xbf\x00\x00\x00\x00\x00\x00\x00\x00'
p872
tp873
bsS'[ 0.2  0.2]'
p874
g6
(g7
(I0
tp875
g9
tp876
Rp877
(I1
(I2
tp878
g16
I00
S'\x9a\x99\x99\x99\x99\x99\xc9?\x9a\x99\x99\x99\x99\x99\xc9?'
p879
tp880
bsS'[-0.2  0.2]'
p881
g6
(g7
(I0
tp882
g9
tp883
Rp884
(I1
(I2
tp885
g16
I00
S'\x9a\x99\x99\x99\x99\x99\xc9\xbf\x9a\x99\x99\x99\x99\x99\xc9?'
p886
tp887
bsS'[0 0]'
p888
g6
(g7
(I0
tp889
g9
tp890
Rp891
(I1
(I2
tp892
g29
I00
S'\x00\x00\x00\x00\x00\x00\x00\x00\x00\x00\x00\x00\x00\x00\x00\x00'
p893
tp894
bsS'[-0.2 -0.2]'
p895
g6
(g7
(I0
tp896
g9
tp897
Rp898
(I1
(I2
tp899
g16
I00
S'\x9a\x99\x99\x99\x99\x99\xc9\xbf\x9a\x99\x99\x99\x99\x99\xc9\xbf'
p900
tp901
bsS'[ 0.  -0.2]'
p902
g6
(g7
(I0
tp903
g9
tp904
Rp905
(I1
(I2
tp906
g16
I00
S'\x00\x00\x00\x00\x00\x00\x00\x00\x9a\x99\x99\x99\x99\x99\xc9\xbf'
p907
tp908
bsS'[ 0.   0.2]'
p909
g6
(g7
(I0
tp910
g9
tp911
Rp912
(I1
(I2
tp913
g16
I00
S'\x00\x00\x00\x00\x00\x00\x00\x00\x9a\x99\x99\x99\x99\x99\xc9?'
p914
tp915
bssS'weight'
p916
F1.0
sS'label'
p917
c__builtin__
set
p918
((lp919
g895
atp920
Rp921
ssg738
(dp922
g851
(dp923
g853
g856
sg860
g863
sg867
g870
sg888
g891
sg895
g898
sg902
g905
ssg916
F1.0
sg917
g918
((lp924
g895
atp925
Rp926
ss(g103
g567
tp927
(dp928
g851
(dp929
g867
g870
sg881
g884
sg888
g891
sg895
g898
sg902
g905
sg909
g912
ssg916
F1.0
sg917
g918
((lp930
g895
atp931
Rp932
ss(g99
g567
tp933
(dp934
g851
(dp935
g888
g891
sg895
g898
sg867
g870
sg902
g905
ssg916
F1.0
sg917
g918
((lp936
g895
atp937
Rp938
sssg572
(dp939
g621
(dp940
g851
(dp941
g853
g856
sg860
g863
sg874
g877
sg888
g891
sg902
g905
sg909
g912
ssg916
F1.0
sg917
g918
((lp942
g853
atp943
Rp944
ss(g89
g578
tp945
(dp946
g851
(dp947
g853
g856
sg860
g863
sg867
g870
sg888
g891
sg895
g898
sg902
g905
ssg916
F1.0
sg917
g918
((lp948
g853
atp949
Rp950
ssg838
(dp951
g851
(dp952
g888
g891
sg853
g856
sg902
g905
sg860
g863
ssg916
F1.0
sg917
g918
((lp953
g853
atp954
Rp955
ssg756
(dp956
g851
(dp957
g888
g891
sg853
g856
sg902
g905
sg860
g863
ssg916
F1.0
sg917
g918
((lp958
g853
atp959
Rp960
ss(g119
g571
tp961
(dp962
g851
(dp963
g853
g856
sg860
g863
sg867
g870
sg874
g877
sg881
g884
sg888
g891
sg895
g898
sg902
g905
sg909
g912
ssg916
F1.0
sg917
g918
((lp964
g853
atp965
Rp966
ss(g89
g571
tp967
(dp968
g851
(dp969
g853
g856
sg860
g863
sg867
g870
sg888
g891
sg895
g898
sg902
g905
ssg916
F1.0
sg917
g918
((lp970
g853
atp971
Rp972
sssg574
(dp973
(g111
g567
tp974
(dp975
g851
(dp976
g860
g863
sg867
g870
sg874
g877
sg881
g884
sg888
g891
sg909
g912
ssg916
F1.0
sg917
g918
((lp977
g881
atp978
Rp979
ss(g91
g567
tp980
(dp981
g851
(dp982
g853
g856
sg860
g863
sg867
g870
sg874
g877
sg881
g884
sg888
g891
sg895
g898
sg902
g905
sg909
g912
ssg916
F1.0
sg917
g918
((lp983
g881
atp984
Rp985
ss(g99
g567
tp986
(dp987
g851
(dp988
g881
g884
sg888
g891
sg867
g870
sg909
g912
ssg916
F1.0
sg917
g918
((lp989
g881
atp990
Rp991
ss(g122
g567
tp992
(dp993
g851
(dp994
g867
g870
sg881
g884
sg888
g891
sg895
g898
sg902
g905
sg909
g912
ssg916
F1.0
sg917
g918
((lp995
g881
atp996
Rp997
sssg576
(dp998
(g113
g567
tp999
(dp1000
g851
(dp1001
g853
g856
sg860
g863
sg867
g870
sg888
g891
sg895
g898
sg902
g905
ssg916
F1.0
sg917
g918
((lp1002
g853
atp1003
Rp1004
ss(g125
g567
tp1005
(dp1006
g851
(dp1007
g888
g891
sg853
g856
sg902
g905
sg860
g863
ssg916
F1.0
sg917
g918
((lp1008
g853
atp1009
Rp1010
ss(g116
g567
tp1011
(dp1012
g851
(dp1013
g853
g856
sg860
g863
sg874
g877
sg888
g891
sg902
g905
sg909
g912
ssg916
F1.0
sg917
g918
((lp1014
g853
atp1015
Rp1016
ss(g105
g567
tp1017
(dp1018
g851
(dp1019
g853
g856
sg860
g863
sg867
g870
sg874
g877
sg881
g884
sg888
g891
sg895
g898
sg902
g905
sg909
g912
ssg916
F1.0
sg917
g918
((lp1020
g853
atp1021
Rp1022
sssg579
(dp1023
(g95
VT0_init
p1024
tp1025
(dp1026
g851
(dp1027
g853
g856
sg860
g863
sg867
g870
sg874
g877
sg881
g884
sg888
g891
sg895
g898
sg902
g905
sg909
g912
ssg916
F1.0
sg917
g918
((lp1028
g867
atp1029
Rp1030
ss(g106
g707
tp1031
(dp1032
g851
(dp1033
g860
g863
sg867
g870
sg874
g877
sg881
g884
sg888
g891
sg909
g912
ssg916
F1.0
sg917
g918
((lp1034
g867
atp1035
Rp1036
ss(g88
g1024
tp1037
(dp1038
g851
(dp1039
g881
g884
sg888
g891
sg867
g870
sg909
g912
ssg916
F1.0
sg917
g918
((lp1040
g867
atp1041
Rp1042
ss(g109
g1024
tp1043
(dp1044
g851
(dp1045
g867
g870
sg881
g884
sg888
g891
sg895
g898
sg902
g905
sg909
g912
ssg916
F1.0
sg917
g918
((lp1046
g867
atp1047
Rp1048
ss(g88
g707
tp1049
(dp1050
g851
(dp1051
g881
g884
sg888
g891
sg867
g870
sg909
g912
ssg916
F1.0
sg917
g918
((lp1052
g867
atp1053
Rp1054
ss(g106
g1024
tp1055
(dp1056
g851
(dp1057
g860
g863
sg867
g870
sg874
g877
sg881
g884
sg888
g891
sg909
g912
ssg916
F1.0
sg917
g918
((lp1058
g867
atp1059
Rp1060
ss(g111
g1024
tp1061
(dp1062
g851
(dp1063
g888
g891
sg895
g898
sg867
g870
sg902
g905
ssg916
F1.0
sg917
g918
((lp1064
g867
atp1065
Rp1066
ss(g121
g1024
tp1067
(dp1068
g851
(dp1069
g853
g856
sg860
g863
sg867
g870
sg888
g891
sg895
g898
sg902
g905
ssg916
F1.0
sg917
g918
((lp1070
g867
atp1071
Rp1072
sssg581
(dp1073
(g102
g571
tp1074
(dp1075
g851
(dp1076
g853
g856
sg860
g863
sg867
g870
sg874
g877
sg881
g884
sg888
g891
sg895
g898
sg902
g905
sg909
g912
ssg916
F1.0
sg917
g918
((lp1077
g874
atp1078
Rp1079
ss(g115
g571
tp1080
(dp1081
g851
(dp1082
g860
g863
sg867
g870
sg874
g877
sg881
g884
sg888
g891
sg909
g912
ssg916
F1.0
sg917
g918
((lp1083
g874
atp1084
Rp1085
ss(g112
g571
tp1086
(dp1087
g851
(dp1088
g853
g856
sg860
g863
sg874
g877
sg888
g891
sg902
g905
sg909
g912
ssg916
F1.0
sg917
g918
((lp1089
g874
atp1090
Rp1091
ss(g110
g571
tp1092
(dp1093
g851
(dp1094
g888
g891
sg860
g863
sg874
g877
sg909
g912
ssg916
F1.0
sg917
g918
((lp1095
g874
atp1096
Rp1097
sssg584
(dp1098
(g95
g583
tp1099
(dp1100
g851
(dp1101
g853
g856
sg860
g863
sg867
g870
sg874
g877
sg881
g884
sg888
g891
sg895
g898
sg902
g905
sg909
g912
ssg916
F1.0
sg917
g918
((lp1102
g881
atp1103
Rp1104
ss(g106
g618
tp1105
(dp1106
g851
(dp1107
g860
g863
sg867
g870
sg874
g877
sg881
g884
sg888
g891
sg909
g912
ssg916
F1.0
sg917
g918
((lp1108
g881
atp1109
Rp1110
ss(g88
g583
tp1111
(dp1112
g851
(dp1113
g881
g884
sg888
g891
sg867
g870
sg909
g912
ssg916
F1.0
sg917
g918
((lp1114
g881
atp1115
Rp1116
ss(g109
g583
tp1117
(dp1118
g851
(dp1119
g867
g870
sg881
g884
sg888
g891
sg895
g898
sg902
g905
sg909
g912
ssg916
F1.0
sg917
g918
((lp1120
g881
atp1121
Rp1122
ss(g88
g618
tp1123
(dp1124
g851
(dp1125
g881
g884
sg888
g891
sg867
g870
sg909
g912
ssg916
F1.0
sg917
g918
((lp1126
g881
atp1127
Rp1128
ss(g106
g583
tp1129
(dp1130
g851
(dp1131
g860
g863
sg867
g870
sg874
g877
sg881
g884
sg888
g891
sg909
g912
ssg916
F1.0
sg917
g918
((lp1132
g881
atp1133
Rp1134
sssg586
(dp1135
(g106
g571
tp1136
(dp1137
g851
(dp1138
g853
g856
sg860
g863
sg874
g877
sg888
g891
sg902
g905
sg909
g912
ssg916
F1.0
sg917
g918
((lp1139
g853
atp1140
Rp1141
ss(g109
g578
tp1142
(dp1143
g851
(dp1144
g853
g856
sg860
g863
sg867
g870
sg888
g891
sg895
g898
sg902
g905
ssg916
F1.0
sg917
g918
((lp1145
g853
atp1146
Rp1147
ss(g95
g571
tp1148
(dp1149
g851
(dp1150
g888
g891
sg853
g856
sg902
g905
sg860
g863
ssg916
F1.0
sg917
g918
((lp1151
g853
atp1152
Rp1153
ss(g95
g578
tp1154
(dp1155
g851
(dp1156
g888
g891
sg853
g856
sg902
g905
sg860
g863
ssg916
F1.0
sg917
g918
((lp1157
g853
atp1158
Rp1159
ss(g88
g571
tp1160
(dp1161
g851
(dp1162
g853
g856
sg860
g863
sg867
g870
sg874
g877
sg881
g884
sg888
g891
sg895
g898
sg902
g905
sg909
g912
ssg916
F1.0
sg917
g918
((lp1163
g853
atp1164
Rp1165
ss(g109
g571
tp1166
(dp1167
g851
(dp1168
g853
g856
sg860
g863
sg867
g870
sg888
g891
sg895
g898
sg902
g905
ssg916
F1.0
sg917
g918
((lp1169
g853
atp1170
Rp1171
sssg588
(dp1172
g661
(dp1173
g851
(dp1174
g853
g856
sg860
g863
sg867
g870
sg888
g891
sg895
g898
sg902
g905
ssg916
F1.0
sg917
g918
((lp1175
g853
atp1176
Rp1177
ss(g109
g578
tp1178
(dp1179
g851
(dp1180
g853
g856
sg860
g863
sg867
g870
sg874
g877
sg881
g884
sg888
g891
sg895
g898
sg902
g905
sg909
g912
ssg916
F1.0
sg917
g918
((lp1181
g853
atp1182
Rp1183
ssg794
(dp1184
g851
(dp1185
g853
g856
sg860
g863
sg874
g877
sg888
g891
sg902
g905
sg909
g912
ssg916
F1.0
sg917
g918
((lp1186
g853
atp1187
Rp1188
ssg655
(dp1189
g851
(dp1190
g853
g856
sg860
g863
sg867
g870
sg888
g891
sg895
g898
sg902
g905
ssg916
F1.0
sg917
g918
((lp1191
g853
atp1192
Rp1193
ssg671
(dp1194
g851
(dp1195
g888
g891
sg853
g856
sg902
g905
sg860
g863
ssg916
F1.0
sg917
g918
((lp1196
g853
atp1197
Rp1198
ssg830
(dp1199
g851
(dp1200
g888
g891
sg853
g856
sg902
g905
sg860
g863
ssg916
F1.0
sg917
g918
((lp1201
g853
atp1202
Rp1203
ssg579
(dp1204
g851
(dp1205
g853
g856
sg860
g863
sg874
g877
sg888
g891
sg902
g905
sg909
g912
ssg916
F1.0
sg917
g918
((lp1206
g853
atp1207
Rp1208
sssg590
(dp1209
(g122
g583
tp1210
(dp1211
g851
(dp1212
g888
g891
sg860
g863
sg874
g877
sg909
g912
ssg916
F1.0
sg917
g918
((lp1213
g874
atp1214
Rp1215
ss(g129
g583
tp1216
(dp1217
g851
(dp1218
g860
g863
sg867
g870
sg874
g877
sg881
g884
sg888
g891
sg909
g912
ssg916
F1.0
sg917
g918
((lp1219
g874
atp1220
Rp1221
ss(g100
g583
tp1222
(dp1223
g851
(dp1224
g853
g856
sg860
g863
sg867
g870
sg874
g877
sg881
g884
sg888
g891
sg895
g898
sg902
g905
sg909
g912
ssg916
F1.0
sg917
g918
((lp1225
g874
atp1226
Rp1227
ss(g126
g583
tp1228
(dp1229
g851
(dp1230
g853
g856
sg860
g863
sg874
g877
sg888
g891
sg902
g905
sg909
g912
ssg916
F1.0
sg917
g918
((lp1231
g874
atp1232
Rp1233
sssg593
(dp1234
g748
(dp1235
g851
(dp1236
g853
g856
sg860
g863
sg874
g877
sg888
g891
sg902
g905
sg909
g912
ssg916
F1.0
sg917
g918
((lp1237
g874
atp1238
Rp1239
ssg663
(dp1240
g851
(dp1241
g888
g891
sg860
g863
sg874
g877
sg909
g912
ssg916
F1.0
sg917
g918
((lp1242
g874
atp1243
Rp1244
ssg788
(dp1245
g851
(dp1246
g860
g863
sg867
g870
sg874
g877
sg881
g884
sg888
g891
sg909
g912
ssg916
F1.0
sg917
g918
((lp1247
g874
atp1248
Rp1249
ss(g94
g571
tp1250
(dp1251
g851
(dp1252
g853
g856
sg860
g863
sg867
g870
sg874
g877
sg881
g884
sg888
g891
sg895
g898
sg902
g905
sg909
g912
ssg916
F1.0
sg917
g918
((lp1253
g874
atp1254
Rp1255
ssg720
(dp1256
g851
(dp1257
g853
g856
sg860
g863
sg874
g877
sg888
g891
sg902
g905
sg909
g912
ssg916
F1.0
sg917
g918
((lp1258
g874
atp1259
Rp1260
ssg822
(dp1261
g851
(dp1262
g888
g891
sg860
g863
sg874
g877
sg909
g912
ssg916
F1.0
sg917
g918
((lp1263
g874
atp1264
Rp1265
sssg595
(dp1266
(g92
g583
tp1267
(dp1268
g851
(dp1269
g881
g884
sg888
g891
sg867
g870
sg909
g912
ssg916
F1.0
sg917
g918
((lp1270
g881
atp1271
Rp1272
ss(g131
g583
tp1273
(dp1274
g851
(dp1275
g867
g870
sg881
g884
sg888
g891
sg895
g898
sg902
g905
sg909
g912
ssg916
F1.0
sg917
g918
((lp1276
g881
atp1277
Rp1278
ss(g96
g618
tp1279
(dp1280
g851
(dp1281
g860
g863
sg867
g870
sg874
g877
sg881
g884
sg888
g891
sg909
g912
ssg916
F1.0
sg917
g918
((lp1282
g881
atp1283
Rp1284
ss(g96
g583
tp1285
(dp1286
g851
(dp1287
g860
g863
sg867
g870
sg874
g877
sg881
g884
sg888
g891
sg909
g912
ssg916
F1.0
sg917
g918
((lp1288
g881
atp1289
Rp1290
ss(g131
g618
tp1291
(dp1292
g851
(dp1293
g867
g870
sg881
g884
sg888
g891
sg895
g898
sg902
g905
sg909
g912
ssg916
F1.0
sg917
g918
((lp1294
g881
atp1295
Rp1296
ss(g132
g618
tp1297
(dp1298
g851
(dp1299
g853
g856
sg860
g863
sg867
g870
sg874
g877
sg881
g884
sg888
g891
sg895
g898
sg902
g905
sg909
g912
ssg916
F1.0
sg917
g918
((lp1300
g881
atp1301
Rp1302
ss(g92
g618
tp1303
(dp1304
g851
(dp1305
g881
g884
sg888
g891
sg867
g870
sg909
g912
ssg916
F1.0
sg917
g918
((lp1306
g881
atp1307
Rp1308
sssg597
(dp1309
(g100
g578
tp1310
(dp1311
g851
(dp1312
g853
g856
sg860
g863
sg867
g870
sg874
g877
sg881
g884
sg888
g891
sg895
g898
sg902
g905
sg909
g912
ssg916
F1.0
sg917
g918
((lp1313
g874
atp1314
Rp1315
ss(g129
g578
tp1316
(dp1317
g851
(dp1318
g860
g863
sg867
g870
sg874
g877
sg881
g884
sg888
g891
sg909
g912
ssg916
F1.0
sg917
g918
((lp1319
g874
atp1320
Rp1321
ss(g122
g571
tp1322
(dp1323
g851
(dp1324
g888
g891
sg860
g863
sg874
g877
sg909
g912
ssg916
F1.0
sg917
g918
((lp1325
g874
atp1326
Rp1327
ss(g126
g571
tp1328
(dp1329
g851
(dp1330
g853
g856
sg860
g863
sg874
g877
sg888
g891
sg902
g905
sg909
g912
ssg916
F1.0
sg917
g918
((lp1331
g874
atp1332
Rp1333
ss(g126
g578
tp1334
(dp1335
g851
(dp1336
g853
g856
sg860
g863
sg874
g877
sg888
g891
sg902
g905
sg909
g912
ssg916
F1.0
sg917
g918
((lp1337
g874
atp1338
Rp1339
ss(g122
g578
tp1340
(dp1341
g851
(dp1342
g888
g891
sg860
g863
sg874
g877
sg909
g912
ssg916
F1.0
sg917
g918
((lp1343
g874
atp1344
Rp1345
ss(g129
g571
tp1346
(dp1347
g851
(dp1348
g860
g863
sg867
g870
sg874
g877
sg881
g884
sg888
g891
sg909
g912
ssg916
F1.0
sg917
g918
((lp1349
g874
atp1350
Rp1351
sssg599
(dp1352
(g119
g618
tp1353
(dp1354
g851
(dp1355
g853
g856
sg860
g863
sg874
g877
sg888
g891
sg902
g905
sg909
g912
ssg916
F1.0
sg917
g918
((lp1356
g874
atp1357
Rp1358
ss(g113
g583
tp1359
(dp1360
g851
(dp1361
g860
g863
sg867
g870
sg874
g877
sg881
g884
sg888
g891
sg909
g912
ssg916
F1.0
sg917
g918
((lp1362
g874
atp1363
Rp1364
ss(g107
g583
tp1365
(dp1366
g851
(dp1367
g853
g856
sg860
g863
sg867
g870
sg874
g877
sg881
g884
sg888
g891
sg895
g898
sg902
g905
sg909
g912
ssg916
F1.0
sg917
g918
((lp1368
g874
atp1369
Rp1370
ss(g125
g583
tp1371
(dp1372
g851
(dp1373
g888
g891
sg860
g863
sg874
g877
sg909
g912
ssg916
F1.0
sg917
g918
((lp1374
g874
atp1375
Rp1376
ss(g119
g583
tp1377
(dp1378
g851
(dp1379
g853
g856
sg860
g863
sg874
g877
sg888
g891
sg902
g905
sg909
g912
ssg916
F1.0
sg917
g918
((lp1380
g874
atp1381
Rp1382
ss(g125
g618
tp1383
(dp1384
g851
(dp1385
g888
g891
sg860
g863
sg874
g877
sg909
g912
ssg916
F1.0
sg917
g918
((lp1386
g874
atp1387
Rp1388
sssg601
(dp1389
(g110
g583
tp1390
(dp1391
g851
(dp1392
g888
g891
sg860
g863
sg874
g877
sg909
g912
ssg916
F1.0
sg917
g918
((lp1393
g874
atp1394
Rp1395
ss(g115
g583
tp1396
(dp1397
g851
(dp1398
g860
g863
sg867
g870
sg874
g877
sg881
g884
sg888
g891
sg909
g912
ssg916
F1.0
sg917
g918
((lp1399
g874
atp1400
Rp1401
ss(g102
g583
tp1402
(dp1403
g851
(dp1404
g853
g856
sg860
g863
sg867
g870
sg874
g877
sg881
g884
sg888
g891
sg895
g898
sg902
g905
sg909
g912
ssg916
F1.0
sg917
g918
((lp1405
g874
atp1406
Rp1407
ss(g112
g583
tp1408
(dp1409
g851
(dp1410
g853
g856
sg860
g863
sg874
g877
sg888
g891
sg902
g905
sg909
g912
ssg916
F1.0
sg917
g918
((lp1411
g874
atp1412
Rp1413
sssg604
(dp1414
(g84
g583
tp1415
(dp1416
g851
(dp1417
g853
g856
sg860
g863
sg867
g870
sg874
g877
sg881
g884
sg888
g891
sg895
g898
sg902
g905
sg909
g912
ssg916
F1.0
sg917
g918
((lp1418
g874
atp1419
Rp1420
ssg645
(dp1421
g851
(dp1422
g853
g856
sg860
g863
sg874
g877
sg888
g891
sg902
g905
sg909
g912
ssg916
F1.0
sg917
g918
((lp1423
g874
atp1424
Rp1425
ssg643
(dp1426
g851
(dp1427
g888
g891
sg860
g863
sg874
g877
sg909
g912
ssg916
F1.0
sg917
g918
((lp1428
g874
atp1429
Rp1430
ssg705
(dp1431
g851
(dp1432
g860
g863
sg867
g870
sg874
g877
sg881
g884
sg888
g891
sg909
g912
ssg916
F1.0
sg917
g918
((lp1433
g874
atp1434
Rp1435
sssg606
(dp1436
(g125
g583
tp1437
(dp1438
g851
(dp1439
g853
g856
sg860
g863
sg867
g870
sg888
g891
sg895
g898
sg902
g905
ssg916
F1.0
sg917
g918
((lp1440
g853
atp1441
Rp1442
ss(g104
g618
tp1443
(dp1444
g851
(dp1445
g853
g856
sg860
g863
sg874
g877
sg888
g891
sg902
g905
sg909
g912
ssg916
F1.0
sg917
g918
((lp1446
g853
atp1447
Rp1448
ss(g123
g583
tp1449
(dp1450
g851
(dp1451
g888
g891
sg853
g856
sg902
g905
sg860
g863
ssg916
F1.0
sg917
g918
((lp1452
g853
atp1453
Rp1454
ss(g104
g583
tp1455
(dp1456
g851
(dp1457
g853
g856
sg860
g863
sg874
g877
sg888
g891
sg902
g905
sg909
g912
ssg916
F1.0
sg917
g918
((lp1458
g853
atp1459
Rp1460
ss(g123
g618
tp1461
(dp1462
g851
(dp1463
g888
g891
sg853
g856
sg902
g905
sg860
g863
ssg916
F1.0
sg917
g918
((lp1464
g853
atp1465
Rp1466
ss(g125
g618
tp1467
(dp1468
g851
(dp1469
g853
g856
sg860
g863
sg867
g870
sg888
g891
sg895
g898
sg902
g905
ssg916
F1.0
sg917
g918
((lp1470
g853
atp1471
Rp1472
ssg742
(dp1473
g851
(dp1474
g853
g856
sg860
g863
sg867
g870
sg874
g877
sg881
g884
sg888
g891
sg895
g898
sg902
g905
sg909
g912
ssg916
F1.0
sg917
g918
((lp1475
g853
atp1476
Rp1477
sssg608
(dp1478
(g108
g567
tp1479
(dp1480
g851
(dp1481
g888
g891
sg853
g856
sg902
g905
sg860
g863
ssg916
F1.0
sg917
g918
((lp1482
g853
atp1483
Rp1484
ss(g114
g567
tp1485
(dp1486
g851
(dp1487
g853
g856
sg860
g863
sg867
g870
sg874
g877
sg881
g884
sg888
g891
sg895
g898
sg902
g905
sg909
g912
ssg916
F1.0
sg917
g918
((lp1488
g853
atp1489
Rp1490
ss(g93
g567
tp1491
(dp1492
g851
(dp1493
g853
g856
sg860
g863
sg874
g877
sg888
g891
sg902
g905
sg909
g912
ssg916
F1.0
sg917
g918
((lp1494
g853
atp1495
Rp1496
ss(g84
g567
tp1497
(dp1498
g851
(dp1499
g853
g856
sg860
g863
sg867
g870
sg888
g891
sg895
g898
sg902
g905
ssg916
F1.0
sg917
g918
((lp1500
g853
atp1501
Rp1502
sssg610
(dp1503
(g118
g571
tp1504
(dp1505
g851
(dp1506
g888
g891
sg860
g863
sg874
g877
sg909
g912
ssg916
F1.0
sg917
g918
((lp1507
g874
atp1508
Rp1509
ss(g129
g578
tp1510
(dp1511
g851
(dp1512
g853
g856
sg860
g863
sg874
g877
sg888
g891
sg902
g905
sg909
g912
ssg916
F1.0
sg917
g918
((lp1513
g874
atp1514
Rp1515
ss(g110
g571
tp1516
(dp1517
g851
(dp1518
g853
g856
sg860
g863
sg867
g870
sg874
g877
sg881
g884
sg888
g891
sg895
g898
sg902
g905
sg909
g912
ssg916
F1.0
sg917
g918
((lp1519
g874
atp1520
Rp1521
ss(g94
g571
tp1522
(dp1523
g851
(dp1524
g860
g863
sg867
g870
sg874
g877
sg881
g884
sg888
g891
sg909
g912
ssg916
F1.0
sg917
g918
((lp1525
g874
atp1526
Rp1527
ss(g118
g578
tp1528
(dp1529
g851
(dp1530
g888
g891
sg860
g863
sg874
g877
sg909
g912
ssg916
F1.0
sg917
g918
((lp1531
g874
atp1532
Rp1533
ss(g129
g571
tp1534
(dp1535
g851
(dp1536
g853
g856
sg860
g863
sg874
g877
sg888
g891
sg902
g905
sg909
g912
ssg916
F1.0
sg917
g918
((lp1537
g874
atp1538
Rp1539
sssg612
(dp1540
(g122
g1024
tp1541
(dp1542
g851
(dp1543
g853
g856
sg860
g863
sg874
g877
sg888
g891
sg902
g905
sg909
g912
ssg916
F1.0
sg917
g918
((lp1544
g909
atp1545
Rp1546
ss(g110
g1024
tp1547
(dp1548
g851
(dp1549
g867
g870
sg881
g884
sg888
g891
sg895
g898
sg902
g905
sg909
g912
ssg916
F1.0
sg917
g918
((lp1550
g909
atp1551
Rp1552
ss(g94
g1024
tp1553
(dp1554
g851
(dp1555
g881
g884
sg888
g891
sg867
g870
sg909
g912
ssg916
F1.0
sg917
g918
((lp1556
g909
atp1557
Rp1558
ss(g129
g1024
tp1559
(dp1560
g851
(dp1561
g853
g856
sg860
g863
sg867
g870
sg874
g877
sg881
g884
sg888
g891
sg895
g898
sg902
g905
sg909
g912
ssg916
F1.0
sg917
g918
((lp1562
g909
atp1563
Rp1564
ss(g99
g1024
tp1565
(dp1566
g851
(dp1567
g888
g891
sg860
g863
sg874
g877
sg909
g912
ssg916
F1.0
sg917
g918
((lp1568
g909
atp1569
Rp1570
ss(g118
g1024
tp1571
(dp1572
g851
(dp1573
g860
g863
sg867
g870
sg874
g877
sg881
g884
sg888
g891
sg909
g912
ssg916
F1.0
sg917
g918
((lp1574
g909
atp1575
Rp1576
sssg614
(dp1577
(g129
g567
tp1578
(dp1579
g851
(dp1580
g867
g870
sg881
g884
sg888
g891
sg895
g898
sg902
g905
sg909
g912
ssg916
F1.0
sg917
g918
((lp1581
g881
atp1582
Rp1583
ss(g118
g567
tp1584
(dp1585
g851
(dp1586
g881
g884
sg888
g891
sg867
g870
sg909
g912
ssg916
F1.0
sg917
g918
((lp1587
g881
atp1588
Rp1589
ss(g122
g567
tp1590
(dp1591
g851
(dp1592
g853
g856
sg860
g863
sg867
g870
sg874
g877
sg881
g884
sg888
g891
sg895
g898
sg902
g905
sg909
g912
ssg916
F1.0
sg917
g918
((lp1593
g881
atp1594
Rp1595
ss(g99
g567
tp1596
(dp1597
g851
(dp1598
g860
g863
sg867
g870
sg874
g877
sg881
g884
sg888
g891
sg909
g912
ssg916
F1.0
sg917
g918
((lp1599
g881
atp1600
Rp1601
sssg616
(dp1602
(g87
g583
tp1603
(dp1604
g851
(dp1605
g853
g856
sg860
g863
sg867
g870
sg888
g891
sg895
g898
sg902
g905
ssg916
F1.0
sg917
g918
((lp1606
g853
atp1607
Rp1608
ss(g101
g583
tp1609
(dp1610
g851
(dp1611
g888
g891
sg853
g856
sg902
g905
sg860
g863
ssg916
F1.0
sg917
g918
((lp1612
g853
atp1613
Rp1614
ss(g130
g583
tp1615
(dp1616
g851
(dp1617
g853
g856
sg860
g863
sg867
g870
sg874
g877
sg881
g884
sg888
g891
sg895
g898
sg902
g905
sg909
g912
ssg916
F1.0
sg917
g918
((lp1618
g853
atp1619
Rp1620
ss(g85
g583
tp1621
(dp1622
g851
(dp1623
g853
g856
sg860
g863
sg874
g877
sg888
g891
sg902
g905
sg909
g912
ssg916
F1.0
sg917
g918
((lp1624
g853
atp1625
Rp1626
sssg619
(dp1627
(g109
g567
tp1628
(dp1629
g851
(dp1630
g853
g856
sg860
g863
sg867
g870
sg888
g891
sg895
g898
sg902
g905
ssg916
F1.0
sg917
g918
((lp1631
g895
atp1632
Rp1633
ss(g88
g567
tp1634
(dp1635
g851
(dp1636
g853
g856
sg860
g863
sg867
g870
sg874
g877
sg881
g884
sg888
g891
sg895
g898
sg902
g905
sg909
g912
ssg916
F1.0
sg917
g918
((lp1637
g895
atp1638
Rp1639
ss(g90
g567
tp1640
(dp1641
g851
(dp1642
g867
g870
sg881
g884
sg888
g891
sg895
g898
sg902
g905
sg909
g912
ssg916
F1.0
sg917
g918
((lp1643
g895
atp1644
Rp1645
ss(g103
g567
tp1646
(dp1647
g851
(dp1648
g888
g891
sg895
g898
sg867
g870
sg902
g905
ssg916
F1.0
sg917
g918
((lp1649
g895
atp1650
Rp1651
sssg621
(dp1652
g586
(dp1653
g851
(dp1654
g853
g856
sg860
g863
sg874
g877
sg888
g891
sg902
g905
sg909
g912
ssg916
F1.0
sg917
g918
((lp1655
g853
atp1656
Rp1657
ssg718
(dp1658
g851
(dp1659
g888
g891
sg853
g856
sg902
g905
sg860
g863
ssg916
F1.0
sg917
g918
((lp1660
g853
atp1661
Rp1662
ss(g103
g571
tp1663
(dp1664
g851
(dp1665
g853
g856
sg860
g863
sg867
g870
sg888
g891
sg895
g898
sg902
g905
ssg916
F1.0
sg917
g918
((lp1666
g853
atp1667
Rp1668
ss(g103
g578
tp1669
(dp1670
g851
(dp1671
g853
g856
sg860
g863
sg867
g870
sg888
g891
sg895
g898
sg902
g905
ssg916
F1.0
sg917
g918
((lp1672
g853
atp1673
Rp1674
ss(g90
g571
tp1675
(dp1676
g851
(dp1677
g853
g856
sg860
g863
sg867
g870
sg874
g877
sg881
g884
sg888
g891
sg895
g898
sg902
g905
sg909
g912
ssg916
F1.0
sg917
g918
((lp1678
g853
atp1679
Rp1680
ssg588
(dp1681
g851
(dp1682
g888
g891
sg853
g856
sg902
g905
sg860
g863
ssg916
F1.0
sg917
g918
((lp1683
g853
atp1684
Rp1685
sssg623
(dp1686
(g127
g583
tp1687
(dp1688
g851
(dp1689
g853
g856
sg860
g863
sg867
g870
sg874
g877
sg881
g884
sg888
g891
sg895
g898
sg902
g905
sg909
g912
ssg916
F1.0
sg917
g918
((lp1690
g881
atp1691
Rp1692
ss(g91
g583
tp1693
(dp1694
g851
(dp1695
g867
g870
sg881
g884
sg888
g891
sg895
g898
sg902
g905
sg909
g912
ssg916
F1.0
sg917
g918
((lp1696
g881
atp1697
Rp1698
ss(g111
g583
tp1699
(dp1700
g851
(dp1701
g881
g884
sg888
g891
sg867
g870
sg909
g912
ssg916
F1.0
sg917
g918
((lp1702
g881
atp1703
Rp1704
ss(g121
g583
tp1705
(dp1706
g851
(dp1707
g860
g863
sg867
g870
sg874
g877
sg881
g884
sg888
g891
sg909
g912
ssg916
F1.0
sg917
g918
((lp1708
g881
atp1709
Rp1710
sssg625
(dp1711
g770
(dp1712
g851
(dp1713
g853
g856
sg860
g863
sg867
g870
sg888
g891
sg895
g898
sg902
g905
ssg916
F1.0
sg917
g918
((lp1714
g895
atp1715
Rp1716
ssg693
(dp1717
g851
(dp1718
g867
g870
sg881
g884
sg888
g891
sg895
g898
sg902
g905
sg909
g912
ssg916
F1.0
sg917
g918
((lp1719
g895
atp1720
Rp1721
ssg657
(dp1722
g851
(dp1723
g888
g891
sg895
g898
sg867
g870
sg902
g905
ssg916
F1.0
sg917
g918
((lp1724
g895
atp1725
Rp1726
ssg649
(dp1727
g851
(dp1728
g867
g870
sg881
g884
sg888
g891
sg895
g898
sg902
g905
sg909
g912
ssg916
F1.0
sg917
g918
((lp1729
g895
atp1730
Rp1731
ssg637
(dp1732
g851
(dp1733
g888
g891
sg895
g898
sg867
g870
sg902
g905
ssg916
F1.0
sg917
g918
((lp1734
g895
atp1735
Rp1736
ssg786
(dp1737
g851
(dp1738
g853
g856
sg860
g863
sg867
g870
sg888
g891
sg895
g898
sg902
g905
ssg916
F1.0
sg917
g918
((lp1739
g895
atp1740
Rp1741
ssg659
(dp1742
g851
(dp1743
g853
g856
sg860
g863
sg867
g870
sg874
g877
sg881
g884
sg888
g891
sg895
g898
sg902
g905
sg909
g912
ssg916
F1.0
sg917
g918
((lp1744
g895
atp1745
Rp1746
sssg627
(dp1747
(g89
g567
tp1748
(dp1749
g851
(dp1750
g853
g856
sg860
g863
sg867
g870
sg888
g891
sg895
g898
sg902
g905
ssg916
F1.0
sg917
g918
((lp1751
g853
atp1752
Rp1753
ss(g119
g567
tp1754
(dp1755
g851
(dp1756
g853
g856
sg860
g863
sg867
g870
sg874
g877
sg881
g884
sg888
g891
sg895
g898
sg902
g905
sg909
g912
ssg916
F1.0
sg917
g918
((lp1757
g853
atp1758
Rp1759
ss(g90
g567
tp1760
(dp1761
g851
(dp1762
g853
g856
sg860
g863
sg874
g877
sg888
g891
sg902
g905
sg909
g912
ssg916
F1.0
sg917
g918
((lp1763
g853
atp1764
Rp1765
ssg667
(dp1766
g851
(dp1767
g888
g891
sg853
g856
sg902
g905
sg860
g863
ssg916
F1.0
sg917
g918
((lp1768
g853
atp1769
Rp1770
sssg629
(dp1771
(g106
g618
tp1772
(dp1773
g851
(dp1774
g853
g856
sg860
g863
sg867
g870
sg874
g877
sg881
g884
sg888
g891
sg895
g898
sg902
g905
sg909
g912
ssg916
F1.0
sg917
g918
((lp1775
g881
atp1776
Rp1777
ss(g131
g583
tp1778
(dp1779
g851
(dp1780
g881
g884
sg888
g891
sg867
g870
sg909
g912
ssg916
F1.0
sg917
g918
((lp1781
g881
atp1782
Rp1783
ss(g88
g583
tp1784
(dp1785
g851
(dp1786
g867
g870
sg881
g884
sg888
g891
sg895
g898
sg902
g905
sg909
g912
ssg916
F1.0
sg917
g918
((lp1787
g881
atp1788
Rp1789
ss(g132
g583
tp1790
(dp1791
g851
(dp1792
g860
g863
sg867
g870
sg874
g877
sg881
g884
sg888
g891
sg909
g912
ssg916
F1.0
sg917
g918
((lp1793
g881
atp1794
Rp1795
ss(g88
g618
tp1796
(dp1797
g851
(dp1798
g867
g870
sg881
g884
sg888
g891
sg895
g898
sg902
g905
sg909
g912
ssg916
F1.0
sg917
g918
((lp1799
g881
atp1800
Rp1801
ss(g132
g618
tp1802
(dp1803
g851
(dp1804
g860
g863
sg867
g870
sg874
g877
sg881
g884
sg888
g891
sg909
g912
ssg916
F1.0
sg917
g918
((lp1805
g881
atp1806
Rp1807
ss(g131
g618
tp1808
(dp1809
g851
(dp1810
g881
g884
sg888
g891
sg867
g870
sg909
g912
ssg916
F1.0
sg917
g918
((lp1811
g881
atp1812
Rp1813
sssg631
(dp1814
(g120
g571
tp1815
(dp1816
g851
(dp1817
g853
g856
sg860
g863
sg867
g870
sg874
g877
sg881
g884
sg888
g891
sg895
g898
sg902
g905
sg909
g912
ssg916
F1.0
sg917
g918
((lp1818
g874
atp1819
Rp1820
ss(g94
g571
tp1821
(dp1822
g851
(dp1823
g853
g856
sg860
g863
sg874
g877
sg888
g891
sg902
g905
sg909
g912
ssg916
F1.0
sg917
g918
((lp1824
g874
atp1825
Rp1826
ss(g108
g571
tp1827
(dp1828
g851
(dp1829
g860
g863
sg867
g870
sg874
g877
sg881
g884
sg888
g891
sg909
g912
ssg916
F1.0
sg917
g918
((lp1830
g874
atp1831
Rp1832
ss(g86
g571
tp1833
(dp1834
g851
(dp1835
g888
g891
sg860
g863
sg874
g877
sg909
g912
ssg916
F1.0
sg917
g918
((lp1836
g874
atp1837
Rp1838
sssg633
(dp1839
(g109
g567
tp1840
(dp1841
g851
(dp1842
g867
g870
sg881
g884
sg888
g891
sg895
g898
sg902
g905
sg909
g912
ssg916
F1.0
sg917
g918
((lp1843
g895
atp1844
Rp1845
ss(g95
g567
tp1846
(dp1847
g851
(dp1848
g853
g856
sg860
g863
sg867
g870
sg874
g877
sg881
g884
sg888
g891
sg895
g898
sg902
g905
sg909
g912
ssg916
F1.0
sg917
g918
((lp1849
g895
atp1850
Rp1851
ss(g121
g567
tp1852
(dp1853
g851
(dp1854
g853
g856
sg860
g863
sg867
g870
sg888
g891
sg895
g898
sg902
g905
ssg916
F1.0
sg917
g918
((lp1855
g895
atp1856
Rp1857
ss(g111
g567
tp1858
(dp1859
g851
(dp1860
g888
g891
sg895
g898
sg867
g870
sg902
g905
ssg916
F1.0
sg917
g918
((lp1861
g895
atp1862
Rp1863
sssg635
(dp1864
(g102
g571
tp1865
(dp1866
g851
(dp1867
g853
g856
sg860
g863
sg874
g877
sg888
g891
sg902
g905
sg909
g912
ssg916
F1.0
sg917
g918
((lp1868
g874
atp1869
Rp1870
ss(g97
g571
tp1871
(dp1872
g851
(dp1873
g860
g863
sg867
g870
sg874
g877
sg881
g884
sg888
g891
sg909
g912
ssg916
F1.0
sg917
g918
((lp1874
g874
atp1875
Rp1876
ss(g124
g571
tp1877
(dp1878
g851
(dp1879
g853
g856
sg860
g863
sg867
g870
sg874
g877
sg881
g884
sg888
g891
sg895
g898
sg902
g905
sg909
g912
ssg916
F1.0
sg917
g918
((lp1880
g874
atp1881
Rp1882
ss(g115
g571
tp1883
(dp1884
g851
(dp1885
g888
g891
sg860
g863
sg874
g877
sg909
g912
ssg916
F1.0
sg917
g918
((lp1886
g874
atp1887
Rp1888
sssg637
(dp1889
(g119
g567
tp1890
(dp1891
g851
(dp1892
g888
g891
sg895
g898
sg867
g870
sg902
g905
ssg916
F1.0
sg917
g918
((lp1893
g895
atp1894
Rp1895
ss(g125
g567
tp1896
(dp1897
g851
(dp1898
g867
g870
sg881
g884
sg888
g891
sg895
g898
sg902
g905
sg909
g912
ssg916
F1.0
sg917
g918
((lp1899
g895
atp1900
Rp1901
ss(g90
g567
tp1902
(dp1903
g851
(dp1904
g853
g856
sg860
g863
sg867
g870
sg888
g891
sg895
g898
sg902
g905
ssg916
F1.0
sg917
g918
((lp1905
g895
atp1906
Rp1907
ss(g123
g567
tp1908
(dp1909
g851
(dp1910
g853
g856
sg860
g863
sg867
g870
sg874
g877
sg881
g884
sg888
g891
sg895
g898
sg902
g905
sg909
g912
ssg916
F1.0
sg917
g918
((lp1911
g895
atp1912
Rp1913
sssg639
(dp1914
(g103
g583
tp1915
(dp1916
g851
(dp1917
g853
g856
sg860
g863
sg867
g870
sg874
g877
sg881
g884
sg888
g891
sg895
g898
sg902
g905
sg909
g912
ssg916
F1.0
sg917
g918
((lp1918
g881
atp1919
Rp1920
ss(g119
g618
tp1921
(dp1922
g851
(dp1923
g881
g884
sg888
g891
sg867
g870
sg909
g912
ssg916
F1.0
sg917
g918
((lp1924
g881
atp1925
Rp1926
ss(g119
g583
tp1927
(dp1928
g851
(dp1929
g881
g884
sg888
g891
sg867
g870
sg909
g912
ssg916
F1.0
sg917
g918
((lp1930
g881
atp1931
Rp1932
ss(g89
g583
tp1933
(dp1934
g851
(dp1935
g867
g870
sg881
g884
sg888
g891
sg895
g898
sg902
g905
sg909
g912
ssg916
F1.0
sg917
g918
((lp1936
g881
atp1937
Rp1938
ss(g90
g618
tp1939
(dp1940
g851
(dp1941
g860
g863
sg867
g870
sg874
g877
sg881
g884
sg888
g891
sg909
g912
ssg916
F1.0
sg917
g918
((lp1942
g881
atp1943
Rp1944
ss(g90
g583
tp1945
(dp1946
g851
(dp1947
g860
g863
sg867
g870
sg874
g877
sg881
g884
sg888
g891
sg909
g912
ssg916
F1.0
sg917
g918
((lp1948
g881
atp1949
Rp1950
sssg641
(dp1951
(g99
g571
tp1952
(dp1953
g851
(dp1954
g860
g863
sg867
g870
sg874
g877
sg881
g884
sg888
g891
sg909
g912
ssg916
F1.0
sg917
g918
((lp1955
g881
atp1956
Rp1957
ss(g129
g578
tp1958
(dp1959
g851
(dp1960
g867
g870
sg881
g884
sg888
g891
sg895
g898
sg902
g905
sg909
g912
ssg916
F1.0
sg917
g918
((lp1961
g881
atp1962
Rp1963
ss(g99
g578
tp1964
(dp1965
g851
(dp1966
g860
g863
sg867
g870
sg874
g877
sg881
g884
sg888
g891
sg909
g912
ssg916
F1.0
sg917
g918
((lp1967
g881
atp1968
Rp1969
ss(g118
g571
tp1970
(dp1971
g851
(dp1972
g881
g884
sg888
g891
sg867
g870
sg909
g912
ssg916
F1.0
sg917
g918
((lp1973
g881
atp1974
Rp1975
ss(g118
g578
tp1976
(dp1977
g851
(dp1978
g881
g884
sg888
g891
sg867
g870
sg909
g912
ssg916
F1.0
sg917
g918
((lp1979
g881
atp1980
Rp1981
ss(g122
g578
tp1982
(dp1983
g851
(dp1984
g853
g856
sg860
g863
sg867
g870
sg874
g877
sg881
g884
sg888
g891
sg895
g898
sg902
g905
sg909
g912
ssg916
F1.0
sg917
g918
((lp1985
g881
atp1986
Rp1987
ss(g129
g571
tp1988
(dp1989
g851
(dp1990
g867
g870
sg881
g884
sg888
g891
sg895
g898
sg902
g905
sg909
g912
ssg916
F1.0
sg917
g918
((lp1991
g881
atp1992
Rp1993
sssg643
(dp1994
(g101
g583
tp1995
(dp1996
g851
(dp1997
g860
g863
sg867
g870
sg874
g877
sg881
g884
sg888
g891
sg909
g912
ssg916
F1.0
sg917
g918
((lp1998
g874
atp1999
Rp2000
ss(g113
g583
tp2001
(dp2002
g851
(dp2003
g888
g891
sg860
g863
sg874
g877
sg909
g912
ssg916
F1.0
sg917
g918
((lp2004
g874
atp2005
Rp2006
ss(g107
g583
tp2007
(dp2008
g851
(dp2009
g853
g856
sg860
g863
sg874
g877
sg888
g891
sg902
g905
sg909
g912
ssg916
F1.0
sg917
g918
((lp2010
g874
atp2011
Rp2012
ss(g93
g583
tp2013
(dp2014
g851
(dp2015
g853
g856
sg860
g863
sg867
g870
sg874
g877
sg881
g884
sg888
g891
sg895
g898
sg902
g905
sg909
g912
ssg916
F1.0
sg917
g918
((lp2016
g874
atp2017
Rp2018
sssg645
(dp2019
(g86
g583
tp2020
(dp2021
g851
(dp2022
g853
g856
sg860
g863
sg874
g877
sg888
g891
sg902
g905
sg909
g912
ssg916
F1.0
sg917
g918
((lp2023
g874
atp2024
Rp2025
ss(g108
g583
tp2026
(dp2027
g851
(dp2028
g853
g856
sg860
g863
sg867
g870
sg874
g877
sg881
g884
sg888
g891
sg895
g898
sg902
g905
sg909
g912
ssg916
F1.0
sg917
g918
((lp2029
g874
atp2030
Rp2031
ss(g93
g583
tp2032
(dp2033
g851
(dp2034
g860
g863
sg867
g870
sg874
g877
sg881
g884
sg888
g891
sg909
g912
ssg916
F1.0
sg917
g918
((lp2035
g874
atp2036
Rp2037
ss(g107
g583
tp2038
(dp2039
g851
(dp2040
g888
g891
sg860
g863
sg874
g877
sg909
g912
ssg916
F1.0
sg917
g918
((lp2041
g874
atp2042
Rp2043
sssg647
(dp2044
(g115
g567
tp2045
(dp2046
g851
(dp2047
g867
g870
sg881
g884
sg888
g891
sg895
g898
sg902
g905
sg909
g912
ssg916
F1.0
sg917
g918
((lp2048
g881
atp2049
Rp2050
ss(g120
VT2_S1
p2051
tp2052
(dp2053
g851
(dp2054
g881
g884
sg888
g891
sg867
g870
sg909
g912
ssg916
F1.0
sg917
g918
((lp2055
g881
atp2056
Rp2057
ss(g110
g2051
tp2058
(dp2059
g851
(dp2060
g853
g856
sg860
g863
sg867
g870
sg874
g877
sg881
g884
sg888
g891
sg895
g898
sg902
g905
sg909
g912
ssg916
F1.0
sg917
g918
((lp2061
g881
atp2062
Rp2063
ss(g94
g567
tp2064
(dp2065
g851
(dp2066
g860
g863
sg867
g870
sg874
g877
sg881
g884
sg888
g891
sg909
g912
ssg916
F1.0
sg917
g918
((lp2067
g881
atp2068
Rp2069
ss(g94
g2051
tp2070
(dp2071
g851
(dp2072
g860
g863
sg867
g870
sg874
g877
sg881
g884
sg888
g891
sg909
g912
ssg916
F1.0
sg917
g918
((lp2073
g881
atp2074
Rp2075
ss(g120
g567
tp2076
(dp2077
g851
(dp2078
g881
g884
sg888
g891
sg867
g870
sg909
g912
ssg916
F1.0
sg917
g918
((lp2079
g881
atp2080
Rp2081
ss(g115
g2051
tp2082
(dp2083
g851
(dp2084
g867
g870
sg881
g884
sg888
g891
sg895
g898
sg902
g905
sg909
g912
ssg916
F1.0
sg917
g918
((lp2085
g881
atp2086
Rp2087
sssg649
(dp2088
(g116
g583
tp2089
(dp2090
g851
(dp2091
g867
g870
sg881
g884
sg888
g891
sg895
g898
sg902
g905
sg909
g912
ssg916
F1.0
sg917
g918
((lp2092
g895
atp2093
Rp2094
ss(g123
g583
tp2095
(dp2096
g851
(dp2097
g853
g856
sg860
g863
sg867
g870
sg888
g891
sg895
g898
sg902
g905
ssg916
F1.0
sg917
g918
((lp2098
g895
atp2099
Rp2100
ss(g104
g618
tp2101
(dp2102
g851
(dp2103
g853
g856
sg860
g863
sg867
g870
sg874
g877
sg881
g884
sg888
g891
sg895
g898
sg902
g905
sg909
g912
ssg916
F1.0
sg917
g918
((lp2104
g895
atp2105
Rp2106
ss(g125
g583
tp2107
(dp2108
g851
(dp2109
g888
g891
sg895
g898
sg867
g870
sg902
g905
ssg916
F1.0
sg917
g918
((lp2110
g895
atp2111
Rp2112
ss(g125
g618
tp2113
(dp2114
g851
(dp2115
g888
g891
sg895
g898
sg867
g870
sg902
g905
ssg916
F1.0
sg917
g918
((lp2116
g895
atp2117
Rp2118
ss(g123
g618
tp2119
(dp2120
g851
(dp2121
g853
g856
sg860
g863
sg867
g870
sg888
g891
sg895
g898
sg902
g905
ssg916
F1.0
sg917
g918
((lp2122
g895
atp2123
Rp2124
ss(g116
g618
tp2125
(dp2126
g851
(dp2127
g867
g870
sg881
g884
sg888
g891
sg895
g898
sg902
g905
sg909
g912
ssg916
F1.0
sg917
g918
((lp2128
g895
atp2129
Rp2130
sssg651
(dp2131
(g88
g567
tp2132
(dp2133
g851
(dp2134
g853
g856
sg860
g863
sg874
g877
sg888
g891
sg902
g905
sg909
g912
ssg916
F1.0
sg917
g918
((lp2135
g853
atp2136
Rp2137
ssg568
(dp2138
g851
(dp2139
g888
g891
sg853
g856
sg902
g905
sg860
g863
ssg916
F1.0
sg917
g918
((lp2140
g853
atp2141
Rp2142
ss(g90
g567
tp2143
(dp2144
g851
(dp2145
g853
g856
sg860
g863
sg867
g870
sg874
g877
sg881
g884
sg888
g891
sg895
g898
sg902
g905
sg909
g912
ssg916
F1.0
sg917
g918
((lp2146
g853
atp2147
Rp2148
ss(g103
g567
tp2149
(dp2150
g851
(dp2151
g853
g856
sg860
g863
sg867
g870
sg888
g891
sg895
g898
sg902
g905
ssg916
F1.0
sg917
g918
((lp2152
g853
atp2153
Rp2154
sssg653
(dp2155
(g119
g618
tp2156
(dp2157
g851
(dp2158
g867
g870
sg881
g884
sg888
g891
sg895
g898
sg902
g905
sg909
g912
ssg916
F1.0
sg917
g918
((lp2159
g881
atp2160
Rp2161
ss(g123
g583
tp2162
(dp2163
g851
(dp2164
g860
g863
sg867
g870
sg874
g877
sg881
g884
sg888
g891
sg909
g912
ssg916
F1.0
sg917
g918
((lp2165
g881
atp2166
Rp2167
ss(g119
g583
tp2168
(dp2169
g851
(dp2170
g867
g870
sg881
g884
sg888
g891
sg895
g898
sg902
g905
sg909
g912
ssg916
F1.0
sg917
g918
((lp2171
g881
atp2172
Rp2173
ss(g125
g583
tp2174
(dp2175
g851
(dp2176
g881
g884
sg888
g891
sg867
g870
sg909
g912
ssg916
F1.0
sg917
g918
((lp2177
g881
atp2178
Rp2179
ss(g90
g618
tp2180
(dp2181
g851
(dp2182
g853
g856
sg860
g863
sg867
g870
sg874
g877
sg881
g884
sg888
g891
sg895
g898
sg902
g905
sg909
g912
ssg916
F1.0
sg917
g918
((lp2183
g881
atp2184
Rp2185
ss(g125
g618
tp2186
(dp2187
g851
(dp2188
g881
g884
sg888
g891
sg867
g870
sg909
g912
ssg916
F1.0
sg917
g918
((lp2189
g881
atp2190
Rp2191
ss(g123
g618
tp2192
(dp2193
g851
(dp2194
g860
g863
sg867
g870
sg874
g877
sg881
g884
sg888
g891
sg909
g912
ssg916
F1.0
sg917
g918
((lp2195
g881
atp2196
Rp2197
sssg655
(dp2198
(g103
g1024
tp2199
(dp2200
g851
(dp2201
g881
g884
sg888
g891
sg867
g870
sg909
g912
ssg916
F1.0
sg917
g918
((lp2202
g909
atp2203
Rp2204
ss(g95
g1024
tp2205
(dp2206
g851
(dp2207
g888
g891
sg860
g863
sg874
g877
sg909
g912
ssg916
F1.0
sg917
g918
((lp2208
g909
atp2209
Rp2210
ss(g99
g1024
tp2211
(dp2212
g851
(dp2213
g867
g870
sg881
g884
sg888
g891
sg895
g898
sg902
g905
sg909
g912
ssg916
F1.0
sg917
g918
((lp2214
g909
atp2215
Rp2216
ss(g109
g1024
tp2217
(dp2218
g851
(dp2219
g860
g863
sg867
g870
sg874
g877
sg881
g884
sg888
g891
sg909
g912
ssg916
F1.0
sg917
g918
((lp2220
g909
atp2221
Rp2222
ss(g121
g1024
tp2223
(dp2224
g851
(dp2225
g853
g856
sg860
g863
sg874
g877
sg888
g891
sg902
g905
sg909
g912
ssg916
F1.0
sg917
g918
((lp2226
g909
atp2227
Rp2228
ss(g111
g1024
tp2229
(dp2230
g851
(dp2231
g853
g856
sg860
g863
sg867
g870
sg874
g877
sg881
g884
sg888
g891
sg895
g898
sg902
g905
sg909
g912
ssg916
F1.0
sg917
g918
((lp2232
g909
atp2233
Rp2234
sssg657
(dp2235
(g116
g583
tp2236
(dp2237
g851
(dp2238
g881
g884
sg888
g891
sg867
g870
sg909
g912
ssg916
F1.0
sg917
g918
((lp2239
g881
atp2240
Rp2241
ss(g125
g583
tp2242
(dp2243
g851
(dp2244
g867
g870
sg881
g884
sg888
g891
sg895
g898
sg902
g905
sg909
g912
ssg916
F1.0
sg917
g918
((lp2245
g881
atp2246
Rp2247
ss(g104
g618
tp2248
(dp2249
g851
(dp2250
g860
g863
sg867
g870
sg874
g877
sg881
g884
sg888
g891
sg909
g912
ssg916
F1.0
sg917
g918
((lp2251
g881
atp2252
Rp2253
ss(g104
g583
tp2254
(dp2255
g851
(dp2256
g860
g863
sg867
g870
sg874
g877
sg881
g884
sg888
g891
sg909
g912
ssg916
F1.0
sg917
g918
((lp2257
g881
atp2258
Rp2259
ss(g125
g618
tp2260
(dp2261
g851
(dp2262
g867
g870
sg881
g884
sg888
g891
sg895
g898
sg902
g905
sg909
g912
ssg916
F1.0
sg917
g918
((lp2263
g881
atp2264
Rp2265
ss(g123
g618
tp2266
(dp2267
g851
(dp2268
g853
g856
sg860
g863
sg867
g870
sg874
g877
sg881
g884
sg888
g891
sg895
g898
sg902
g905
sg909
g912
ssg916
F1.0
sg917
g918
((lp2269
g881
atp2270
Rp2271
ss(g116
g618
tp2272
(dp2273
g851
(dp2274
g881
g884
sg888
g891
sg867
g870
sg909
g912
ssg916
F1.0
sg917
g918
((lp2275
g881
atp2276
Rp2277
sssg659
(dp2278
(g131
g567
tp2279
(dp2280
g851
(dp2281
g853
g856
sg860
g863
sg867
g870
sg888
g891
sg895
g898
sg902
g905
ssg916
F1.0
sg917
g918
((lp2282
g895
atp2283
Rp2284
ss(g123
g567
tp2285
(dp2286
g851
(dp2287
g888
g891
sg895
g898
sg867
g870
sg902
g905
ssg916
F1.0
sg917
g918
((lp2288
g895
atp2289
Rp2290
ss(g92
g567
tp2291
(dp2292
g851
(dp2293
g853
g856
sg860
g863
sg867
g870
sg874
g877
sg881
g884
sg888
g891
sg895
g898
sg902
g905
sg909
g912
ssg916
F1.0
sg917
g918
((lp2294
g895
atp2295
Rp2296
ss(g104
g567
tp2297
(dp2298
g851
(dp2299
g867
g870
sg881
g884
sg888
g891
sg895
g898
sg902
g905
sg909
g912
ssg916
F1.0
sg917
g918
((lp2300
g895
atp2301
Rp2302
sssg661
(dp2303
(g109
g578
tp2304
(dp2305
g851
(dp2306
g860
g863
sg867
g870
sg874
g877
sg881
g884
sg888
g891
sg909
g912
ssg916
F1.0
sg917
g918
((lp2307
g874
atp2308
Rp2309
ss(g95
g571
tp2310
(dp2311
g851
(dp2312
g888
g891
sg860
g863
sg874
g877
sg909
g912
ssg916
F1.0
sg917
g918
((lp2313
g874
atp2314
Rp2315
ss(g111
g578
tp2316
(dp2317
g851
(dp2318
g853
g856
sg860
g863
sg867
g870
sg874
g877
sg881
g884
sg888
g891
sg895
g898
sg902
g905
sg909
g912
ssg916
F1.0
sg917
g918
((lp2319
g874
atp2320
Rp2321
ss(g121
g571
tp2322
(dp2323
g851
(dp2324
g853
g856
sg860
g863
sg874
g877
sg888
g891
sg902
g905
sg909
g912
ssg916
F1.0
sg917
g918
((lp2325
g874
atp2326
Rp2327
ss(g121
g578
tp2328
(dp2329
g851
(dp2330
g853
g856
sg860
g863
sg874
g877
sg888
g891
sg902
g905
sg909
g912
ssg916
F1.0
sg917
g918
((lp2331
g874
atp2332
Rp2333
ss(g95
g578
tp2334
(dp2335
g851
(dp2336
g888
g891
sg860
g863
sg874
g877
sg909
g912
ssg916
F1.0
sg917
g918
((lp2337
g874
atp2338
Rp2339
ss(g109
g571
tp2340
(dp2341
g851
(dp2342
g860
g863
sg867
g870
sg874
g877
sg881
g884
sg888
g891
sg909
g912
ssg916
F1.0
sg917
g918
((lp2343
g874
atp2344
Rp2345
sssg663
(dp2346
(g103
g1024
tp2347
(dp2348
g851
(dp2349
g853
g856
sg860
g863
sg874
g877
sg888
g891
sg902
g905
sg909
g912
ssg916
F1.0
sg917
g918
((lp2350
g909
atp2351
Rp2352
ss(g86
g1024
tp2353
(dp2354
g851
(dp2355
g867
g870
sg881
g884
sg888
g891
sg895
g898
sg902
g905
sg909
g912
ssg916
F1.0
sg917
g918
((lp2356
g909
atp2357
Rp2358
ss(g90
g707
tp2359
(dp2360
g851
(dp2361
g888
g891
sg860
g863
sg874
g877
sg909
g912
ssg916
F1.0
sg917
g918
((lp2362
g909
atp2363
Rp2364
ss(g107
g1024
tp2365
(dp2366
g851
(dp2367
g881
g884
sg888
g891
sg867
g870
sg909
g912
ssg916
F1.0
sg917
g918
((lp2368
g909
atp2369
Rp2370
ss(g90
g1024
tp2371
(dp2372
g851
(dp2373
g888
g891
sg860
g863
sg874
g877
sg909
g912
ssg916
F1.0
sg917
g918
((lp2374
g909
atp2375
Rp2376
ss(g89
g1024
tp2377
(dp2378
g851
(dp2379
g853
g856
sg860
g863
sg867
g870
sg874
g877
sg881
g884
sg888
g891
sg895
g898
sg902
g905
sg909
g912
ssg916
F1.0
sg917
g918
((lp2380
g909
atp2381
Rp2382
ss(g119
g707
tp2383
(dp2384
g851
(dp2385
g860
g863
sg867
g870
sg874
g877
sg881
g884
sg888
g891
sg909
g912
ssg916
F1.0
sg917
g918
((lp2386
g909
atp2387
Rp2388
ss(g119
g1024
tp2389
(dp2390
g851
(dp2391
g860
g863
sg867
g870
sg874
g877
sg881
g884
sg888
g891
sg909
g912
ssg916
F1.0
sg917
g918
((lp2392
g909
atp2393
Rp2394
sssg665
(dp2395
(g108
g567
tp2396
(dp2397
g851
(dp2398
g853
g856
sg860
g863
sg867
g870
sg888
g891
sg895
g898
sg902
g905
ssg916
F1.0
sg917
g918
((lp2399
g853
atp2400
Rp2401
ss(g93
g567
tp2402
(dp2403
g851
(dp2404
g853
g856
sg860
g863
sg867
g870
sg874
g877
sg881
g884
sg888
g891
sg895
g898
sg902
g905
sg909
g912
ssg916
F1.0
sg917
g918
((lp2405
g853
atp2406
Rp2407
ss(g107
g567
tp2408
(dp2409
g851
(dp2410
g853
g856
sg860
g863
sg874
g877
sg888
g891
sg902
g905
sg909
g912
ssg916
F1.0
sg917
g918
((lp2411
g853
atp2412
Rp2413
ss(g86
g567
tp2414
(dp2415
g851
(dp2416
g888
g891
sg853
g856
sg902
g905
sg860
g863
ssg916
F1.0
sg917
g918
((lp2417
g853
atp2418
Rp2419
sssg667
(dp2420
(g89
g567
tp2421
(dp2422
g851
(dp2423
g867
g870
sg881
g884
sg888
g891
sg895
g898
sg902
g905
sg909
g912
ssg916
F1.0
sg917
g918
((lp2424
g895
atp2425
Rp2426
ss(g118
g567
tp2427
(dp2428
g851
(dp2429
g888
g891
sg895
g898
sg867
g870
sg902
g905
ssg916
F1.0
sg917
g918
((lp2430
g895
atp2431
Rp2432
ss(g103
g567
tp2433
(dp2434
g851
(dp2435
g853
g856
sg860
g863
sg867
g870
sg874
g877
sg881
g884
sg888
g891
sg895
g898
sg902
g905
sg909
g912
ssg916
F1.0
sg917
g918
((lp2436
g895
atp2437
Rp2438
ss(g99
g567
tp2439
(dp2440
g851
(dp2441
g853
g856
sg860
g863
sg867
g870
sg888
g891
sg895
g898
sg902
g905
ssg916
F1.0
sg917
g918
((lp2442
g895
atp2443
Rp2444
sssg669
(dp2445
(g86
g583
tp2446
(dp2447
g851
(dp2448
g867
g870
sg881
g884
sg888
g891
sg895
g898
sg902
g905
sg909
g912
ssg916
F1.0
sg917
g918
((lp2449
g881
atp2450
Rp2451
ss(g89
g583
tp2452
(dp2453
g851
(dp2454
g853
g856
sg860
g863
sg867
g870
sg874
g877
sg881
g884
sg888
g891
sg895
g898
sg902
g905
sg909
g912
ssg916
F1.0
sg917
g918
((lp2455
g881
atp2456
Rp2457
ss(g119
g618
tp2458
(dp2459
g851
(dp2460
g860
g863
sg867
g870
sg874
g877
sg881
g884
sg888
g891
sg909
g912
ssg916
F1.0
sg917
g918
((lp2461
g881
atp2462
Rp2463
ss(g107
g583
tp2464
(dp2465
g851
(dp2466
g881
g884
sg888
g891
sg867
g870
sg909
g912
ssg916
F1.0
sg917
g918
((lp2467
g881
atp2468
Rp2469
ss(g119
g583
tp2470
(dp2471
g851
(dp2472
g860
g863
sg867
g870
sg874
g877
sg881
g884
sg888
g891
sg909
g912
ssg916
F1.0
sg917
g918
((lp2473
g881
atp2474
Rp2475
sssg671
(dp2476
(g109
g578
tp2477
(dp2478
g851
(dp2479
g881
g884
sg888
g891
sg867
g870
sg909
g912
ssg916
F1.0
sg917
g918
((lp2480
g881
atp2481
Rp2482
ss(g95
g571
tp2483
(dp2484
g851
(dp2485
g860
g863
sg867
g870
sg874
g877
sg881
g884
sg888
g891
sg909
g912
ssg916
F1.0
sg917
g918
((lp2486
g881
atp2487
Rp2488
ss(g111
g578
tp2489
(dp2490
g851
(dp2491
g867
g870
sg881
g884
sg888
g891
sg895
g898
sg902
g905
sg909
g912
ssg916
F1.0
sg917
g918
((lp2492
g881
atp2493
Rp2494
ss(g111
g571
tp2495
(dp2496
g851
(dp2497
g867
g870
sg881
g884
sg888
g891
sg895
g898
sg902
g905
sg909
g912
ssg916
F1.0
sg917
g918
((lp2498
g881
atp2499
Rp2500
ss(g121
g578
tp2501
(dp2502
g851
(dp2503
g853
g856
sg860
g863
sg867
g870
sg874
g877
sg881
g884
sg888
g891
sg895
g898
sg902
g905
sg909
g912
ssg916
F1.0
sg917
g918
((lp2504
g881
atp2505
Rp2506
ss(g95
g578
tp2507
(dp2508
g851
(dp2509
g860
g863
sg867
g870
sg874
g877
sg881
g884
sg888
g891
sg909
g912
ssg916
F1.0
sg917
g918
((lp2510
g881
atp2511
Rp2512
ss(g109
g571
tp2513
(dp2514
g851
(dp2515
g881
g884
sg888
g891
sg867
g870
sg909
g912
ssg916
F1.0
sg917
g918
((lp2516
g881
atp2517
Rp2518
sssg673
(dp2519
(g122
g1024
tp2520
(dp2521
g851
(dp2522
g888
g891
sg860
g863
sg874
g877
sg909
g912
ssg916
F1.0
sg917
g918
((lp2523
g909
atp2524
Rp2525
ss(g110
g1024
tp2526
(dp2527
g851
(dp2528
g881
g884
sg888
g891
sg867
g870
sg909
g912
ssg916
F1.0
sg917
g918
((lp2529
g909
atp2530
Rp2531
ss(g126
g1024
tp2532
(dp2533
g851
(dp2534
g853
g856
sg860
g863
sg874
g877
sg888
g891
sg902
g905
sg909
g912
ssg916
F1.0
sg917
g918
((lp2535
g909
atp2536
Rp2537
ss(g129
g1024
tp2538
(dp2539
g851
(dp2540
g860
g863
sg867
g870
sg874
g877
sg881
g884
sg888
g891
sg909
g912
ssg916
F1.0
sg917
g918
((lp2541
g909
atp2542
Rp2543
ss(g100
g1024
tp2544
(dp2545
g851
(dp2546
g853
g856
sg860
g863
sg867
g870
sg874
g877
sg881
g884
sg888
g891
sg895
g898
sg902
g905
sg909
g912
ssg916
F1.0
sg917
g918
((lp2547
g909
atp2548
Rp2549
ss(g112
g1024
tp2550
(dp2551
g851
(dp2552
g867
g870
sg881
g884
sg888
g891
sg895
g898
sg902
g905
sg909
g912
ssg916
F1.0
sg917
g918
((lp2553
g909
atp2554
Rp2555
sssg675
(dp2556
(g95
g583
tp2557
(dp2558
g851
(dp2559
g860
g863
sg867
g870
sg874
g877
sg881
g884
sg888
g891
sg909
g912
ssg916
F1.0
sg917
g918
((lp2560
g881
atp2561
Rp2562
ss(g109
g583
tp2563
(dp2564
g851
(dp2565
g881
g884
sg888
g891
sg867
g870
sg909
g912
ssg916
F1.0
sg917
g918
((lp2566
g881
atp2567
Rp2568
ss(g121
g583
tp2569
(dp2570
g851
(dp2571
g853
g856
sg860
g863
sg867
g870
sg874
g877
sg881
g884
sg888
g891
sg895
g898
sg902
g905
sg909
g912
ssg916
F1.0
sg917
g918
((lp2572
g881
atp2573
Rp2574
ss(g111
g583
tp2575
(dp2576
g851
(dp2577
g867
g870
sg881
g884
sg888
g891
sg895
g898
sg902
g905
sg909
g912
ssg916
F1.0
sg917
g918
((lp2578
g881
atp2579
Rp2580
sssg677
(dp2581
(g122
g583
tp2582
(dp2583
g851
(dp2584
g853
g856
sg860
g863
sg874
g877
sg888
g891
sg902
g905
sg909
g912
ssg916
F1.0
sg917
g918
((lp2585
g874
atp2586
Rp2587
ss(g129
g583
tp2588
(dp2589
g851
(dp2590
g853
g856
sg860
g863
sg867
g870
sg874
g877
sg881
g884
sg888
g891
sg895
g898
sg902
g905
sg909
g912
ssg916
F1.0
sg917
g918
((lp2591
g874
atp2592
Rp2593
ss(g99
g583
tp2594
(dp2595
g851
(dp2596
g888
g891
sg860
g863
sg874
g877
sg909
g912
ssg916
F1.0
sg917
g918
((lp2597
g874
atp2598
Rp2599
ss(g118
g583
tp2600
(dp2601
g851
(dp2602
g860
g863
sg867
g870
sg874
g877
sg881
g884
sg888
g891
sg909
g912
ssg916
F1.0
sg917
g918
((lp2603
g874
atp2604
Rp2605
sssg679
(dp2606
g614
(dp2607
g851
(dp2608
g853
g856
sg860
g863
sg867
g870
sg888
g891
sg895
g898
sg902
g905
ssg916
F1.0
sg917
g918
((lp2609
g895
atp2610
Rp2611
ss(g99
g567
tp2612
(dp2613
g851
(dp2614
g853
g856
sg860
g863
sg867
g870
sg874
g877
sg881
g884
sg888
g891
sg895
g898
sg902
g905
sg909
g912
ssg916
F1.0
sg917
g918
((lp2615
g895
atp2616
Rp2617
ss(g129
g567
tp2618
(dp2619
g851
(dp2620
g888
g891
sg895
g898
sg867
g870
sg902
g905
ssg916
F1.0
sg917
g918
((lp2621
g895
atp2622
Rp2623
ss(g118
g567
tp2624
(dp2625
g851
(dp2626
g867
g870
sg881
g884
sg888
g891
sg895
g898
sg902
g905
sg909
g912
ssg916
F1.0
sg917
g918
((lp2627
g895
atp2628
Rp2629
sssg681
(dp2630
(g131
g567
tp2631
(dp2632
g851
(dp2633
g888
g891
sg895
g898
sg867
g870
sg902
g905
ssg916
F1.0
sg917
g918
((lp2634
g895
atp2635
Rp2636
ss(g132
g567
tp2637
(dp2638
g851
(dp2639
g853
g856
sg860
g863
sg867
g870
sg888
g891
sg895
g898
sg902
g905
ssg916
F1.0
sg917
g918
((lp2640
g895
atp2641
Rp2642
ss(g92
g567
tp2643
(dp2644
g851
(dp2645
g867
g870
sg881
g884
sg888
g891
sg895
g898
sg902
g905
sg909
g912
ssg916
F1.0
sg917
g918
((lp2646
g895
atp2647
Rp2648
ss(g96
g567
tp2649
(dp2650
g851
(dp2651
g853
g856
sg860
g863
sg867
g870
sg874
g877
sg881
g884
sg888
g891
sg895
g898
sg902
g905
sg909
g912
ssg916
F1.0
sg917
g918
((lp2652
g895
atp2653
Rp2654
sssg683
(dp2655
(g115
g567
tp2656
(dp2657
g851
(dp2658
g881
g884
sg888
g891
sg867
g870
sg909
g912
ssg916
F1.0
sg917
g918
((lp2659
g881
atp2660
Rp2661
ss(g110
g2051
tp2662
(dp2663
g851
(dp2664
g860
g863
sg867
g870
sg874
g877
sg881
g884
sg888
g891
sg909
g912
ssg916
F1.0
sg917
g918
((lp2665
g881
atp2666
Rp2667
ss(g110
g567
tp2668
(dp2669
g851
(dp2670
g860
g863
sg867
g870
sg874
g877
sg881
g884
sg888
g891
sg909
g912
ssg916
F1.0
sg917
g918
((lp2671
g881
atp2672
Rp2673
ss(g102
g567
tp2674
(dp2675
g851
(dp2676
g867
g870
sg881
g884
sg888
g891
sg895
g898
sg902
g905
sg909
g912
ssg916
F1.0
sg917
g918
((lp2677
g881
atp2678
Rp2679
ss(g112
g2051
tp2680
(dp2681
g851
(dp2682
g853
g856
sg860
g863
sg867
g870
sg874
g877
sg881
g884
sg888
g891
sg895
g898
sg902
g905
sg909
g912
ssg916
F1.0
sg917
g918
((lp2683
g881
atp2684
Rp2685
ss(g102
g2051
tp2686
(dp2687
g851
(dp2688
g867
g870
sg881
g884
sg888
g891
sg895
g898
sg902
g905
sg909
g912
ssg916
F1.0
sg917
g918
((lp2689
g881
atp2690
Rp2691
ss(g115
g2051
tp2692
(dp2693
g851
(dp2694
g881
g884
sg888
g891
sg867
g870
sg909
g912
ssg916
F1.0
sg917
g918
((lp2695
g881
atp2696
Rp2697
sssg685
(dp2698
(g129
g578
tp2699
(dp2700
g851
(dp2701
g888
g891
sg860
g863
sg874
g877
sg909
g912
ssg916
F1.0
sg917
g918
((lp2702
g874
atp2703
Rp2704
ss(g110
g571
tp2705
(dp2706
g851
(dp2707
g860
g863
sg867
g870
sg874
g877
sg881
g884
sg888
g891
sg909
g912
ssg916
F1.0
sg917
g918
((lp2708
g874
atp2709
Rp2710
ss(g100
g571
tp2711
(dp2712
g851
(dp2713
g853
g856
sg860
g863
sg874
g877
sg888
g891
sg902
g905
sg909
g912
ssg916
F1.0
sg917
g918
((lp2714
g874
atp2715
Rp2716
ss(g100
g578
tp2717
(dp2718
g851
(dp2719
g853
g856
sg860
g863
sg874
g877
sg888
g891
sg902
g905
sg909
g912
ssg916
F1.0
sg917
g918
((lp2720
g874
atp2721
Rp2722
ss(g112
g571
tp2723
(dp2724
g851
(dp2725
g853
g856
sg860
g863
sg867
g870
sg874
g877
sg881
g884
sg888
g891
sg895
g898
sg902
g905
sg909
g912
ssg916
F1.0
sg917
g918
((lp2726
g874
atp2727
Rp2728
ss(g129
g571
tp2729
(dp2730
g851
(dp2731
g888
g891
sg860
g863
sg874
g877
sg909
g912
ssg916
F1.0
sg917
g918
((lp2732
g874
atp2733
Rp2734
sssg687
(dp2735
(g132
g567
tp2736
(dp2737
g851
(dp2738
g853
g856
sg860
g863
sg867
g870
sg874
g877
sg881
g884
sg888
g891
sg895
g898
sg902
g905
sg909
g912
ssg916
F1.0
sg917
g918
((lp2739
g895
atp2740
Rp2741
ss(g88
g567
tp2742
(dp2743
g851
(dp2744
g888
g891
sg895
g898
sg867
g870
sg902
g905
ssg916
F1.0
sg917
g918
((lp2745
g895
atp2746
Rp2747
ss(g106
g567
tp2748
(dp2749
g851
(dp2750
g853
g856
sg860
g863
sg867
g870
sg888
g891
sg895
g898
sg902
g905
ssg916
F1.0
sg917
g918
((lp2751
g895
atp2752
Rp2753
ss(g131
g567
tp2754
(dp2755
g851
(dp2756
g867
g870
sg881
g884
sg888
g891
sg895
g898
sg902
g905
sg909
g912
ssg916
F1.0
sg917
g918
((lp2757
g895
atp2758
Rp2759
sssg689
(dp2760
(g86
g583
tp2761
(dp2762
g851
(dp2763
g888
g891
sg860
g863
sg874
g877
sg909
g912
ssg916
F1.0
sg917
g918
((lp2764
g874
atp2765
Rp2766
ss(g108
g583
tp2767
(dp2768
g851
(dp2769
g860
g863
sg867
g870
sg874
g877
sg881
g884
sg888
g891
sg909
g912
ssg916
F1.0
sg917
g918
((lp2770
g874
atp2771
Rp2772
ss(g94
g583
tp2773
(dp2774
g851
(dp2775
g853
g856
sg860
g863
sg874
g877
sg888
g891
sg902
g905
sg909
g912
ssg916
F1.0
sg917
g918
((lp2776
g874
atp2777
Rp2778
ss(g120
g583
tp2779
(dp2780
g851
(dp2781
g853
g856
sg860
g863
sg867
g870
sg874
g877
sg881
g884
sg888
g891
sg895
g898
sg902
g905
sg909
g912
ssg916
F1.0
sg917
g918
((lp2782
g874
atp2783
Rp2784
sssg691
(dp2785
(g107
g571
tp2786
(dp2787
g851
(dp2788
g888
g891
sg860
g863
sg874
g877
sg909
g912
ssg916
F1.0
sg917
g918
((lp2789
g874
atp2790
Rp2791
ss(g86
g571
tp2792
(dp2793
g851
(dp2794
g853
g856
sg860
g863
sg874
g877
sg888
g891
sg902
g905
sg909
g912
ssg916
F1.0
sg917
g918
((lp2795
g874
atp2796
Rp2797
ss(g93
g571
tp2798
(dp2799
g851
(dp2800
g860
g863
sg867
g870
sg874
g877
sg881
g884
sg888
g891
sg909
g912
ssg916
F1.0
sg917
g918
((lp2801
g874
atp2802
Rp2803
ss(g108
g571
tp2804
(dp2805
g851
(dp2806
g853
g856
sg860
g863
sg867
g870
sg874
g877
sg881
g884
sg888
g891
sg895
g898
sg902
g905
sg909
g912
ssg916
F1.0
sg917
g918
((lp2807
g874
atp2808
Rp2809
sssg693
(dp2810
(g125
g567
tp2811
(dp2812
g851
(dp2813
g888
g891
sg895
g898
sg867
g870
sg902
g905
ssg916
F1.0
sg917
g918
((lp2814
g895
atp2815
Rp2816
ss(g123
g567
tp2817
(dp2818
g851
(dp2819
g853
g856
sg860
g863
sg867
g870
sg888
g891
sg895
g898
sg902
g905
ssg916
F1.0
sg917
g918
((lp2820
g895
atp2821
Rp2822
ss(g116
g567
tp2823
(dp2824
g851
(dp2825
g867
g870
sg881
g884
sg888
g891
sg895
g898
sg902
g905
sg909
g912
ssg916
F1.0
sg917
g918
((lp2826
g895
atp2827
Rp2828
ss(g104
g567
tp2829
(dp2830
g851
(dp2831
g853
g856
sg860
g863
sg867
g870
sg874
g877
sg881
g884
sg888
g891
sg895
g898
sg902
g905
sg909
g912
ssg916
F1.0
sg917
g918
((lp2832
g895
atp2833
Rp2834
sssg695
(dp2835
(g122
g583
tp2836
(dp2837
g851
(dp2838
g853
g856
sg860
g863
sg867
g870
sg874
g877
sg881
g884
sg888
g891
sg895
g898
sg902
g905
sg909
g912
ssg916
F1.0
sg917
g918
((lp2839
g874
atp2840
Rp2841
ss(g91
g583
tp2842
(dp2843
g851
(dp2844
g853
g856
sg860
g863
sg874
g877
sg888
g891
sg902
g905
sg909
g912
ssg916
F1.0
sg917
g918
((lp2845
g874
atp2846
Rp2847
ss(g99
g583
tp2848
(dp2849
g851
(dp2850
g860
g863
sg867
g870
sg874
g877
sg881
g884
sg888
g891
sg909
g912
ssg916
F1.0
sg917
g918
((lp2851
g874
atp2852
Rp2853
ss(g111
g583
tp2854
(dp2855
g851
(dp2856
g888
g891
sg860
g863
sg874
g877
sg909
g912
ssg916
F1.0
sg917
g918
((lp2857
g874
atp2858
Rp2859
sssg697
(dp2860
(g113
g583
tp2861
(dp2862
g851
(dp2863
g888
g891
sg853
g856
sg902
g905
sg860
g863
ssg916
F1.0
sg917
g918
((lp2864
g853
atp2865
Rp2866
ss(g101
g583
tp2867
(dp2868
g851
(dp2869
g853
g856
sg860
g863
sg867
g870
sg888
g891
sg895
g898
sg902
g905
ssg916
F1.0
sg917
g918
((lp2870
g853
atp2871
Rp2872
ss(g85
g583
tp2873
(dp2874
g851
(dp2875
g853
g856
sg860
g863
sg867
g870
sg874
g877
sg881
g884
sg888
g891
sg895
g898
sg902
g905
sg909
g912
ssg916
F1.0
sg917
g918
((lp2876
g853
atp2877
Rp2878
ssg703
(dp2879
g851
(dp2880
g853
g856
sg860
g863
sg874
g877
sg888
g891
sg902
g905
sg909
g912
ssg916
F1.0
sg917
g918
((lp2881
g853
atp2882
Rp2883
sssg699
(dp2884
(g116
g583
tp2885
(dp2886
g851
(dp2887
g860
g863
sg867
g870
sg874
g877
sg881
g884
sg888
g891
sg909
g912
ssg916
F1.0
sg917
g918
((lp2888
g874
atp2889
Rp2890
ss(g123
g583
tp2891
(dp2892
g851
(dp2893
g853
g856
sg860
g863
sg874
g877
sg888
g891
sg902
g905
sg909
g912
ssg916
F1.0
sg917
g918
((lp2894
g874
atp2895
Rp2896
ss(g104
g618
tp2897
(dp2898
g851
(dp2899
g888
g891
sg860
g863
sg874
g877
sg909
g912
ssg916
F1.0
sg917
g918
((lp2900
g874
atp2901
Rp2902
ss(g104
g583
tp2903
(dp2904
g851
(dp2905
g888
g891
sg860
g863
sg874
g877
sg909
g912
ssg916
F1.0
sg917
g918
((lp2906
g874
atp2907
Rp2908
ss(g125
g618
tp2909
(dp2910
g851
(dp2911
g853
g856
sg860
g863
sg867
g870
sg874
g877
sg881
g884
sg888
g891
sg895
g898
sg902
g905
sg909
g912
ssg916
F1.0
sg917
g918
((lp2912
g874
atp2913
Rp2914
ss(g123
g618
tp2915
(dp2916
g851
(dp2917
g853
g856
sg860
g863
sg874
g877
sg888
g891
sg902
g905
sg909
g912
ssg916
F1.0
sg917
g918
((lp2918
g874
atp2919
Rp2920
ss(g116
g618
tp2921
(dp2922
g851
(dp2923
g860
g863
sg867
g870
sg874
g877
sg881
g884
sg888
g891
sg909
g912
ssg916
F1.0
sg917
g918
((lp2924
g874
atp2925
Rp2926
sssg701
(dp2927
(g122
g583
tp2928
(dp2929
g851
(dp2930
g867
g870
sg881
g884
sg888
g891
sg895
g898
sg902
g905
sg909
g912
ssg916
F1.0
sg917
g918
((lp2931
g881
atp2932
Rp2933
ss(g91
g583
tp2934
(dp2935
g851
(dp2936
g853
g856
sg860
g863
sg867
g870
sg874
g877
sg881
g884
sg888
g891
sg895
g898
sg902
g905
sg909
g912
ssg916
F1.0
sg917
g918
((lp2937
g881
atp2938
Rp2939
ss(g99
g583
tp2940
(dp2941
g851
(dp2942
g881
g884
sg888
g891
sg867
g870
sg909
g912
ssg916
F1.0
sg917
g918
((lp2943
g881
atp2944
Rp2945
ss(g111
g583
tp2946
(dp2947
g851
(dp2948
g860
g863
sg867
g870
sg874
g877
sg881
g884
sg888
g891
sg909
g912
ssg916
F1.0
sg917
g918
((lp2949
g881
atp2950
Rp2951
sssg703
(dp2952
(g116
g583
tp2953
(dp2954
g851
(dp2955
g853
g856
sg860
g863
sg874
g877
sg888
g891
sg902
g905
sg909
g912
ssg916
F1.0
sg917
g918
((lp2956
g853
atp2957
Rp2958
ss(g113
g583
tp2959
(dp2960
g851
(dp2961
g853
g856
sg860
g863
sg867
g870
sg888
g891
sg895
g898
sg902
g905
ssg916
F1.0
sg917
g918
((lp2962
g853
atp2963
Rp2964
ss(g125
g583
tp2965
(dp2966
g851
(dp2967
g888
g891
sg853
g856
sg902
g905
sg860
g863
ssg916
F1.0
sg917
g918
((lp2968
g853
atp2969
Rp2970
ss(g105
g583
tp2971
(dp2972
g851
(dp2973
g853
g856
sg860
g863
sg867
g870
sg874
g877
sg881
g884
sg888
g891
sg895
g898
sg902
g905
sg909
g912
ssg916
F1.0
sg917
g918
((lp2974
g853
atp2975
Rp2976
ss(g125
g618
tp2977
(dp2978
g851
(dp2979
g888
g891
sg853
g856
sg902
g905
sg860
g863
ssg916
F1.0
sg917
g918
((lp2980
g853
atp2981
Rp2982
ss(g116
g618
tp2983
(dp2984
g851
(dp2985
g853
g856
sg860
g863
sg874
g877
sg888
g891
sg902
g905
sg909
g912
ssg916
F1.0
sg917
g918
((lp2986
g853
atp2987
Rp2988
sssg705
(dp2989
(g87
g583
tp2990
(dp2991
g851
(dp2992
g860
g863
sg867
g870
sg874
g877
sg881
g884
sg888
g891
sg909
g912
ssg916
F1.0
sg917
g918
((lp2993
g874
atp2994
Rp2995
ss(g101
g583
tp2996
(dp2997
g851
(dp2998
g888
g891
sg860
g863
sg874
g877
sg909
g912
ssg916
F1.0
sg917
g918
((lp2999
g874
atp3000
Rp3001
ss(g93
g583
tp3002
(dp3003
g851
(dp3004
g853
g856
sg860
g863
sg874
g877
sg888
g891
sg902
g905
sg909
g912
ssg916
F1.0
sg917
g918
((lp3005
g874
atp3006
Rp3007
ss(g114
g583
tp3008
(dp3009
g851
(dp3010
g853
g856
sg860
g863
sg867
g870
sg874
g877
sg881
g884
sg888
g891
sg895
g898
sg902
g905
sg909
g912
ssg916
F1.0
sg917
g918
((lp3011
g874
atp3012
Rp3013
sssg708
(dp3014
g778
(dp3015
g851
(dp3016
g853
g856
sg860
g863
sg874
g877
sg888
g891
sg902
g905
sg909
g912
ssg916
F1.0
sg917
g918
((lp3017
g853
atp3018
Rp3019
ss(g98
g2051
tp3020
(dp3021
g851
(dp3022
g853
g856
sg860
g863
sg867
g870
sg888
g891
sg895
g898
sg902
g905
ssg916
F1.0
sg917
g918
((lp3023
g853
atp3024
Rp3025
ssg836
(dp3026
g851
(dp3027
g853
g856
sg860
g863
sg867
g870
sg888
g891
sg895
g898
sg902
g905
ssg916
F1.0
sg917
g918
((lp3028
g853
atp3029
Rp3030
ss(g120
g2051
tp3031
(dp3032
g851
(dp3033
g888
g891
sg853
g856
sg902
g905
sg860
g863
ssg916
F1.0
sg917
g918
((lp3034
g853
atp3035
Rp3036
ss(g84
g567
tp3037
(dp3038
g851
(dp3039
g853
g856
sg860
g863
sg867
g870
sg874
g877
sg881
g884
sg888
g891
sg895
g898
sg902
g905
sg909
g912
ssg916
F1.0
sg917
g918
((lp3040
g853
atp3041
Rp3042
ssg750
(dp3043
g851
(dp3044
g888
g891
sg853
g856
sg902
g905
sg860
g863
ssg916
F1.0
sg917
g918
((lp3045
g853
atp3046
Rp3047
sssg710
(dp3048
(g100
g578
tp3049
(dp3050
g851
(dp3051
g867
g870
sg881
g884
sg888
g891
sg895
g898
sg902
g905
sg909
g912
ssg916
F1.0
sg917
g918
((lp3052
g881
atp3053
Rp3054
ss(g129
g578
tp3055
(dp3056
g851
(dp3057
g881
g884
sg888
g891
sg867
g870
sg909
g912
ssg916
F1.0
sg917
g918
((lp3058
g881
atp3059
Rp3060
ss(g122
g571
tp3061
(dp3062
g851
(dp3063
g860
g863
sg867
g870
sg874
g877
sg881
g884
sg888
g891
sg909
g912
ssg916
F1.0
sg917
g918
((lp3064
g881
atp3065
Rp3066
ss(g100
g571
tp3067
(dp3068
g851
(dp3069
g867
g870
sg881
g884
sg888
g891
sg895
g898
sg902
g905
sg909
g912
ssg916
F1.0
sg917
g918
((lp3070
g881
atp3071
Rp3072
ss(g126
g578
tp3073
(dp3074
g851
(dp3075
g853
g856
sg860
g863
sg867
g870
sg874
g877
sg881
g884
sg888
g891
sg895
g898
sg902
g905
sg909
g912
ssg916
F1.0
sg917
g918
((lp3076
g881
atp3077
Rp3078
ss(g122
g578
tp3079
(dp3080
g851
(dp3081
g860
g863
sg867
g870
sg874
g877
sg881
g884
sg888
g891
sg909
g912
ssg916
F1.0
sg917
g918
((lp3082
g881
atp3083
Rp3084
ss(g129
g571
tp3085
(dp3086
g851
(dp3087
g881
g884
sg888
g891
sg867
g870
sg909
g912
ssg916
F1.0
sg917
g918
((lp3088
g881
atp3089
Rp3090
sssg712
(dp3091
(g111
g567
tp3092
(dp3093
g851
(dp3094
g867
g870
sg881
g884
sg888
g891
sg895
g898
sg902
g905
sg909
g912
ssg916
F1.0
sg917
g918
((lp3095
g895
atp3096
Rp3097
ss(g127
g567
tp3098
(dp3099
g851
(dp3100
g853
g856
sg860
g863
sg867
g870
sg888
g891
sg895
g898
sg902
g905
ssg916
F1.0
sg917
g918
((lp3101
g895
atp3102
Rp3103
ss(g121
g567
tp3104
(dp3105
g851
(dp3106
g853
g856
sg860
g863
sg867
g870
sg874
g877
sg881
g884
sg888
g891
sg895
g898
sg902
g905
sg909
g912
ssg916
F1.0
sg917
g918
((lp3107
g895
atp3108
Rp3109
ss(g91
g567
tp3110
(dp3111
g851
(dp3112
g888
g891
sg895
g898
sg867
g870
sg902
g905
ssg916
F1.0
sg917
g918
((lp3113
g895
atp3114
Rp3115
sssg714
(dp3116
(g87
g567
tp3117
(dp3118
g851
(dp3119
g853
g856
sg860
g863
sg867
g870
sg874
g877
sg881
g884
sg888
g891
sg895
g898
sg902
g905
sg909
g912
ssg916
F1.0
sg917
g918
((lp3120
g853
atp3121
Rp3122
ss(g114
g567
tp3123
(dp3124
g851
(dp3125
g853
g856
sg860
g863
sg867
g870
sg888
g891
sg895
g898
sg902
g905
ssg916
F1.0
sg917
g918
((lp3126
g853
atp3127
Rp3128
ss(g93
g567
tp3129
(dp3130
g851
(dp3131
g888
g891
sg853
g856
sg902
g905
sg860
g863
ssg916
F1.0
sg917
g918
((lp3132
g853
atp3133
Rp3134
ssg820
(dp3135
g851
(dp3136
g853
g856
sg860
g863
sg874
g877
sg888
g891
sg902
g905
sg909
g912
ssg916
F1.0
sg917
g918
((lp3137
g853
atp3138
Rp3139
sssg716
(dp3140
(g99
g571
tp3141
(dp3142
g851
(dp3143
g888
g891
sg860
g863
sg874
g877
sg909
g912
ssg916
F1.0
sg917
g918
((lp3144
g874
atp3145
Rp3146
ss(g129
g578
tp3147
(dp3148
g851
(dp3149
g853
g856
sg860
g863
sg867
g870
sg874
g877
sg881
g884
sg888
g891
sg895
g898
sg902
g905
sg909
g912
ssg916
F1.0
sg917
g918
((lp3150
g874
atp3151
Rp3152
ss(g122
g571
tp3153
(dp3154
g851
(dp3155
g853
g856
sg860
g863
sg874
g877
sg888
g891
sg902
g905
sg909
g912
ssg916
F1.0
sg917
g918
((lp3156
g874
atp3157
Rp3158
ss(g118
g578
tp3159
(dp3160
g851
(dp3161
g860
g863
sg867
g870
sg874
g877
sg881
g884
sg888
g891
sg909
g912
ssg916
F1.0
sg917
g918
((lp3162
g874
atp3163
Rp3164
ss(g118
g571
tp3165
(dp3166
g851
(dp3167
g860
g863
sg867
g870
sg874
g877
sg881
g884
sg888
g891
sg909
g912
ssg916
F1.0
sg917
g918
((lp3168
g874
atp3169
Rp3170
ss(g99
g578
tp3171
(dp3172
g851
(dp3173
g888
g891
sg860
g863
sg874
g877
sg909
g912
ssg916
F1.0
sg917
g918
((lp3174
g874
atp3175
Rp3176
ss(g122
g578
tp3177
(dp3178
g851
(dp3179
g853
g856
sg860
g863
sg874
g877
sg888
g891
sg902
g905
sg909
g912
ssg916
F1.0
sg917
g918
((lp3180
g874
atp3181
Rp3182
sssg718
(dp3183
(g95
g1024
tp3184
(dp3185
g851
(dp3186
g853
g856
sg860
g863
sg874
g877
sg888
g891
sg902
g905
sg909
g912
ssg916
F1.0
sg917
g918
((lp3187
g909
atp3188
Rp3189
ss(g103
g1024
tp3190
(dp3191
g851
(dp3192
g867
g870
sg881
g884
sg888
g891
sg895
g898
sg902
g905
sg909
g912
ssg916
F1.0
sg917
g918
((lp3193
g909
atp3194
Rp3195
ss(g88
g707
tp3196
(dp3197
g851
(dp3198
g860
g863
sg867
g870
sg874
g877
sg881
g884
sg888
g891
sg909
g912
ssg916
F1.0
sg917
g918
((lp3199
g909
atp3200
Rp3201
ss(g90
g1024
tp3202
(dp3203
g851
(dp3204
g881
g884
sg888
g891
sg867
g870
sg909
g912
ssg916
F1.0
sg917
g918
((lp3205
g909
atp3206
Rp3207
ss(g109
g1024
tp3208
(dp3209
g851
(dp3210
g853
g856
sg860
g863
sg867
g870
sg874
g877
sg881
g884
sg888
g891
sg895
g898
sg902
g905
sg909
g912
ssg916
F1.0
sg917
g918
((lp3211
g909
atp3212
Rp3213
ss(g90
g707
tp3214
(dp3215
g851
(dp3216
g881
g884
sg888
g891
sg867
g870
sg909
g912
ssg916
F1.0
sg917
g918
((lp3217
g909
atp3218
Rp3219
ss(g88
g1024
tp3220
(dp3221
g851
(dp3222
g860
g863
sg867
g870
sg874
g877
sg881
g884
sg888
g891
sg909
g912
ssg916
F1.0
sg917
g918
((lp3223
g909
atp3224
Rp3225
ss(g106
g1024
tp3226
(dp3227
g851
(dp3228
g888
g891
sg860
g863
sg874
g877
sg909
g912
ssg916
F1.0
sg917
g918
((lp3229
g909
atp3230
Rp3231
ss(g106
g707
tp3232
(dp3233
g851
(dp3234
g888
g891
sg860
g863
sg874
g877
sg909
g912
ssg916
F1.0
sg917
g918
((lp3235
g909
atp3236
Rp3237
sssg720
(dp3238
(g103
g1024
tp3239
(dp3240
g851
(dp3241
g888
g891
sg860
g863
sg874
g877
sg909
g912
ssg916
F1.0
sg917
g918
((lp3242
g909
atp3243
Rp3244
ss(g86
g1024
tp3245
(dp3246
g851
(dp3247
g881
g884
sg888
g891
sg867
g870
sg909
g912
ssg916
F1.0
sg917
g918
((lp3248
g909
atp3249
Rp3250
ss(g94
g1024
tp3251
(dp3252
g851
(dp3253
g867
g870
sg881
g884
sg888
g891
sg895
g898
sg902
g905
sg909
g912
ssg916
F1.0
sg917
g918
((lp3254
g909
atp3255
Rp3256
ss(g89
g1024
tp3257
(dp3258
g851
(dp3259
g860
g863
sg867
g870
sg874
g877
sg881
g884
sg888
g891
sg909
g912
ssg916
F1.0
sg917
g918
((lp3260
g909
atp3261
Rp3262
ss(g99
g1024
tp3263
(dp3264
g851
(dp3265
g853
g856
sg860
g863
sg874
g877
sg888
g891
sg902
g905
sg909
g912
ssg916
F1.0
sg917
g918
((lp3266
g909
atp3267
Rp3268
ss(g118
g1024
tp3269
(dp3270
g851
(dp3271
g853
g856
sg860
g863
sg867
g870
sg874
g877
sg881
g884
sg888
g891
sg895
g898
sg902
g905
sg909
g912
ssg916
F1.0
sg917
g918
((lp3272
g909
atp3273
Rp3274
sssg722
(dp3275
(g116
g583
tp3276
(dp3277
g851
(dp3278
g888
g891
sg860
g863
sg874
g877
sg909
g912
ssg916
F1.0
sg917
g918
((lp3279
g874
atp3280
Rp3281
ss(g113
g583
tp3282
(dp3283
g851
(dp3284
g853
g856
sg860
g863
sg867
g870
sg874
g877
sg881
g884
sg888
g891
sg895
g898
sg902
g905
sg909
g912
ssg916
F1.0
sg917
g918
((lp3285
g874
atp3286
Rp3287
ss(g125
g583
tp3288
(dp3289
g851
(dp3290
g853
g856
sg860
g863
sg874
g877
sg888
g891
sg902
g905
sg909
g912
ssg916
F1.0
sg917
g918
((lp3291
g874
atp3292
Rp3293
ss(g105
g583
tp3294
(dp3295
g851
(dp3296
g860
g863
sg867
g870
sg874
g877
sg881
g884
sg888
g891
sg909
g912
ssg916
F1.0
sg917
g918
((lp3297
g874
atp3298
Rp3299
ss(g125
g618
tp3300
(dp3301
g851
(dp3302
g853
g856
sg860
g863
sg874
g877
sg888
g891
sg902
g905
sg909
g912
ssg916
F1.0
sg917
g918
((lp3303
g874
atp3304
Rp3305
ss(g116
g618
tp3306
(dp3307
g851
(dp3308
g888
g891
sg860
g863
sg874
g877
sg909
g912
ssg916
F1.0
sg917
g918
((lp3309
g874
atp3310
Rp3311
sssg724
(dp3312
(g109
g583
tp3313
(dp3314
g851
(dp3315
g860
g863
sg867
g870
sg874
g877
sg881
g884
sg888
g891
sg909
g912
ssg916
F1.0
sg917
g918
((lp3316
g874
atp3317
Rp3318
ss(g95
g583
tp3319
(dp3320
g851
(dp3321
g888
g891
sg860
g863
sg874
g877
sg909
g912
ssg916
F1.0
sg917
g918
((lp3322
g874
atp3323
Rp3324
ss(g121
g583
tp3325
(dp3326
g851
(dp3327
g853
g856
sg860
g863
sg874
g877
sg888
g891
sg902
g905
sg909
g912
ssg916
F1.0
sg917
g918
((lp3328
g874
atp3329
Rp3330
ss(g111
g583
tp3331
(dp3332
g851
(dp3333
g853
g856
sg860
g863
sg867
g870
sg874
g877
sg881
g884
sg888
g891
sg895
g898
sg902
g905
sg909
g912
ssg916
F1.0
sg917
g918
((lp3334
g874
atp3335
Rp3336
sssg726
(dp3337
(g115
g567
tp3338
(dp3339
g851
(dp3340
g853
g856
sg860
g863
sg874
g877
sg888
g891
sg902
g905
sg909
g912
ssg916
F1.0
sg917
g918
((lp3341
g853
atp3342
Rp3343
ss(g97
g2051
tp3344
(dp3345
g851
(dp3346
g853
g856
sg860
g863
sg867
g870
sg874
g877
sg881
g884
sg888
g891
sg895
g898
sg902
g905
sg909
g912
ssg916
F1.0
sg917
g918
((lp3347
g853
atp3348
Rp3349
ssg832
(dp3350
g851
(dp3351
g853
g856
sg860
g863
sg867
g870
sg888
g891
sg895
g898
sg902
g905
ssg916
F1.0
sg917
g918
((lp3352
g853
atp3353
Rp3354
ss(g124
g2051
tp3355
(dp3356
g851
(dp3357
g853
g856
sg860
g863
sg867
g870
sg888
g891
sg895
g898
sg902
g905
ssg916
F1.0
sg917
g918
((lp3358
g853
atp3359
Rp3360
ss(g102
g2051
tp3361
(dp3362
g851
(dp3363
g888
g891
sg853
g856
sg902
g905
sg860
g863
ssg916
F1.0
sg917
g918
((lp3364
g853
atp3365
Rp3366
ss(g115
g2051
tp3367
(dp3368
g851
(dp3369
g853
g856
sg860
g863
sg874
g877
sg888
g891
sg902
g905
sg909
g912
ssg916
F1.0
sg917
g918
((lp3370
g853
atp3371
Rp3372
ssg782
(dp3373
g851
(dp3374
g888
g891
sg853
g856
sg902
g905
sg860
g863
ssg916
F1.0
sg917
g918
((lp3375
g853
atp3376
Rp3377
sssg728
(dp3378
(g103
g583
tp3379
(dp3380
g851
(dp3381
g888
g891
sg860
g863
sg874
g877
sg909
g912
ssg916
F1.0
sg917
g918
((lp3382
g874
atp3383
Rp3384
ss(g89
g583
tp3385
(dp3386
g851
(dp3387
g860
g863
sg867
g870
sg874
g877
sg881
g884
sg888
g891
sg909
g912
ssg916
F1.0
sg917
g918
((lp3388
g874
atp3389
Rp3390
ss(g99
g583
tp3391
(dp3392
g851
(dp3393
g853
g856
sg860
g863
sg874
g877
sg888
g891
sg902
g905
sg909
g912
ssg916
F1.0
sg917
g918
((lp3394
g874
atp3395
Rp3396
ss(g118
g583
tp3397
(dp3398
g851
(dp3399
g853
g856
sg860
g863
sg867
g870
sg874
g877
sg881
g884
sg888
g891
sg895
g898
sg902
g905
sg909
g912
ssg916
F1.0
sg917
g918
((lp3400
g874
atp3401
Rp3402
sssg730
(dp3403
(g120
g571
tp3404
(dp3405
g851
(dp3406
g860
g863
sg867
g870
sg874
g877
sg881
g884
sg888
g891
sg909
g912
ssg916
F1.0
sg917
g918
((lp3407
g874
atp3408
Rp3409
ss(g94
g571
tp3410
(dp3411
g851
(dp3412
g888
g891
sg860
g863
sg874
g877
sg909
g912
ssg916
F1.0
sg917
g918
((lp3413
g874
atp3414
Rp3415
ss(g110
g571
tp3416
(dp3417
g851
(dp3418
g853
g856
sg860
g863
sg874
g877
sg888
g891
sg902
g905
sg909
g912
ssg916
F1.0
sg917
g918
((lp3419
g874
atp3420
Rp3421
ss(g115
g571
tp3422
(dp3423
g851
(dp3424
g853
g856
sg860
g863
sg867
g870
sg874
g877
sg881
g884
sg888
g891
sg895
g898
sg902
g905
sg909
g912
ssg916
F1.0
sg917
g918
((lp3425
g874
atp3426
Rp3427
sssg732
(dp3428
(g110
g583
tp3429
(dp3430
g851
(dp3431
g853
g856
sg860
g863
sg867
g870
sg874
g877
sg881
g884
sg888
g891
sg895
g898
sg902
g905
sg909
g912
ssg916
F1.0
sg917
g918
((lp3432
g874
atp3433
Rp3434
ss(g129
g583
tp3435
(dp3436
g851
(dp3437
g853
g856
sg860
g863
sg874
g877
sg888
g891
sg902
g905
sg909
g912
ssg916
F1.0
sg917
g918
((lp3438
g874
atp3439
Rp3440
ss(g118
g583
tp3441
(dp3442
g851
(dp3443
g888
g891
sg860
g863
sg874
g877
sg909
g912
ssg916
F1.0
sg917
g918
((lp3444
g874
atp3445
Rp3446
ss(g94
g583
tp3447
(dp3448
g851
(dp3449
g860
g863
sg867
g870
sg874
g877
sg881
g884
sg888
g891
sg909
g912
ssg916
F1.0
sg917
g918
((lp3450
g874
atp3451
Rp3452
sssg734
(dp3453
(g109
g578
tp3454
(dp3455
g851
(dp3456
g888
g891
sg860
g863
sg874
g877
sg909
g912
ssg916
F1.0
sg917
g918
((lp3457
g874
atp3458
Rp3459
ss(g103
g571
tp3460
(dp3461
g851
(dp3462
g860
g863
sg867
g870
sg874
g877
sg881
g884
sg888
g891
sg909
g912
ssg916
F1.0
sg917
g918
((lp3463
g874
atp3464
Rp3465
ss(g99
g578
tp3466
(dp3467
g851
(dp3468
g853
g856
sg860
g863
sg867
g870
sg874
g877
sg881
g884
sg888
g891
sg895
g898
sg902
g905
sg909
g912
ssg916
F1.0
sg917
g918
((lp3469
g874
atp3470
Rp3471
ss(g111
g571
tp3472
(dp3473
g851
(dp3474
g853
g856
sg860
g863
sg874
g877
sg888
g891
sg902
g905
sg909
g912
ssg916
F1.0
sg917
g918
((lp3475
g874
atp3476
Rp3477
ss(g111
g578
tp3478
(dp3479
g851
(dp3480
g853
g856
sg860
g863
sg874
g877
sg888
g891
sg902
g905
sg909
g912
ssg916
F1.0
sg917
g918
((lp3481
g874
atp3482
Rp3483
ss(g103
g578
tp3484
(dp3485
g851
(dp3486
g860
g863
sg867
g870
sg874
g877
sg881
g884
sg888
g891
sg909
g912
ssg916
F1.0
sg917
g918
((lp3487
g874
atp3488
Rp3489
ss(g109
g571
tp3490
(dp3491
g851
(dp3492
g888
g891
sg860
g863
sg874
g877
sg909
g912
ssg916
F1.0
sg917
g918
((lp3493
g874
atp3494
Rp3495
sssg736
(dp3496
(g113
g583
tp3497
(dp3498
g851
(dp3499
g853
g856
sg860
g863
sg874
g877
sg888
g891
sg902
g905
sg909
g912
ssg916
F1.0
sg917
g918
((lp3500
g874
atp3501
Rp3502
ss(g101
g583
tp3503
(dp3504
g851
(dp3505
g853
g856
sg860
g863
sg867
g870
sg874
g877
sg881
g884
sg888
g891
sg895
g898
sg902
g905
sg909
g912
ssg916
F1.0
sg917
g918
((lp3506
g874
atp3507
Rp3508
ss(g85
g583
tp3509
(dp3510
g851
(dp3511
g860
g863
sg867
g870
sg874
g877
sg881
g884
sg888
g891
sg909
g912
ssg916
F1.0
sg917
g918
((lp3512
g874
atp3513
Rp3514
ss(g105
g583
tp3515
(dp3516
g851
(dp3517
g888
g891
sg860
g863
sg874
g877
sg909
g912
ssg916
F1.0
sg917
g918
((lp3518
g874
atp3519
Rp3520
sssg738
(dp3521
(g111
g567
tp3522
(dp3523
g851
(dp3524
g853
g856
sg860
g863
sg867
g870
sg874
g877
sg881
g884
sg888
g891
sg895
g898
sg902
g905
sg909
g912
ssg916
F1.0
sg917
g918
((lp3525
g895
atp3526
Rp3527
ss(g91
g567
tp3528
(dp3529
g851
(dp3530
g853
g856
sg860
g863
sg867
g870
sg888
g891
sg895
g898
sg902
g905
ssg916
F1.0
sg917
g918
((lp3531
g895
atp3532
Rp3533
ss(g99
g567
tp3534
(dp3535
g851
(dp3536
g867
g870
sg881
g884
sg888
g891
sg895
g898
sg902
g905
sg909
g912
ssg916
F1.0
sg917
g918
((lp3537
g895
atp3538
Rp3539
ss(g122
g567
tp3540
(dp3541
g851
(dp3542
g888
g891
sg895
g898
sg867
g870
sg902
g905
ssg916
F1.0
sg917
g918
((lp3543
g895
atp3544
Rp3545
sssg740
(dp3546
g802
(dp3547
g851
(dp3548
g860
g863
sg867
g870
sg874
g877
sg881
g884
sg888
g891
sg909
g912
ssg916
F1.0
sg917
g918
((lp3549
g874
atp3550
Rp3551
ssg669
(dp3552
g851
(dp3553
g888
g891
sg860
g863
sg874
g877
sg909
g912
ssg916
F1.0
sg917
g918
((lp3554
g874
atp3555
Rp3556
ss(g94
g583
tp3557
(dp3558
g851
(dp3559
g853
g856
sg860
g863
sg867
g870
sg874
g877
sg881
g884
sg888
g891
sg895
g898
sg902
g905
sg909
g912
ssg916
F1.0
sg917
g918
((lp3560
g874
atp3561
Rp3562
ssg728
(dp3563
g851
(dp3564
g853
g856
sg860
g863
sg874
g877
sg888
g891
sg902
g905
sg909
g912
ssg916
F1.0
sg917
g918
((lp3565
g874
atp3566
Rp3567
sssg742
(dp3568
(g125
g567
tp3569
(dp3570
g851
(dp3571
g853
g856
sg860
g863
sg867
g870
sg888
g891
sg895
g898
sg902
g905
ssg916
F1.0
sg917
g918
((lp3572
g895
atp3573
Rp3574
ss(g113
g567
tp3575
(dp3576
g851
(dp3577
g888
g891
sg895
g898
sg867
g870
sg902
g905
ssg916
F1.0
sg917
g918
((lp3578
g895
atp3579
Rp3580
ss(g116
g567
tp3581
(dp3582
g851
(dp3583
g853
g856
sg860
g863
sg867
g870
sg874
g877
sg881
g884
sg888
g891
sg895
g898
sg902
g905
sg909
g912
ssg916
F1.0
sg917
g918
((lp3584
g895
atp3585
Rp3586
ss(g105
g567
tp3587
(dp3588
g851
(dp3589
g867
g870
sg881
g884
sg888
g891
sg895
g898
sg902
g905
sg909
g912
ssg916
F1.0
sg917
g918
((lp3590
g895
atp3591
Rp3592
sssg744
(dp3593
(g120
g2051
tp3594
(dp3595
g851
(dp3596
g860
g863
sg867
g870
sg874
g877
sg881
g884
sg888
g891
sg909
g912
ssg916
F1.0
sg917
g918
((lp3597
g874
atp3598
Rp3599
ss(g110
g2051
tp3600
(dp3601
g851
(dp3602
g853
g856
sg860
g863
sg874
g877
sg888
g891
sg902
g905
sg909
g912
ssg916
F1.0
sg917
g918
((lp3603
g874
atp3604
Rp3605
ss(g120
g567
tp3606
(dp3607
g851
(dp3608
g860
g863
sg867
g870
sg874
g877
sg881
g884
sg888
g891
sg909
g912
ssg916
F1.0
sg917
g918
((lp3609
g874
atp3610
Rp3611
ss(g94
g2051
tp3612
(dp3613
g851
(dp3614
g888
g891
sg860
g863
sg874
g877
sg909
g912
ssg916
F1.0
sg917
g918
((lp3615
g874
atp3616
Rp3617
ss(g110
g567
tp3618
(dp3619
g851
(dp3620
g853
g856
sg860
g863
sg874
g877
sg888
g891
sg902
g905
sg909
g912
ssg916
F1.0
sg917
g918
((lp3621
g874
atp3622
Rp3623
ss(g94
g567
tp3624
(dp3625
g851
(dp3626
g888
g891
sg860
g863
sg874
g877
sg909
g912
ssg916
F1.0
sg917
g918
((lp3627
g874
atp3628
Rp3629
ss(g115
g2051
tp3630
(dp3631
g851
(dp3632
g853
g856
sg860
g863
sg867
g870
sg874
g877
sg881
g884
sg888
g891
sg895
g898
sg902
g905
sg909
g912
ssg916
F1.0
sg917
g918
((lp3633
g874
atp3634
Rp3635
sssg746
(dp3636
(g129
g567
tp3637
(dp3638
g851
(dp3639
g853
g856
sg860
g863
sg867
g870
sg874
g877
sg881
g884
sg888
g891
sg895
g898
sg902
g905
sg909
g912
ssg916
F1.0
sg917
g918
((lp3640
g881
atp3641
Rp3642
ss(g110
g2051
tp3643
(dp3644
g851
(dp3645
g867
g870
sg881
g884
sg888
g891
sg895
g898
sg902
g905
sg909
g912
ssg916
F1.0
sg917
g918
((lp3646
g881
atp3647
Rp3648
ss(g118
g567
tp3649
(dp3650
g851
(dp3651
g860
g863
sg867
g870
sg874
g877
sg881
g884
sg888
g891
sg909
g912
ssg916
F1.0
sg917
g918
((lp3652
g881
atp3653
Rp3654
ss(g94
g2051
tp3655
(dp3656
g851
(dp3657
g881
g884
sg888
g891
sg867
g870
sg909
g912
ssg916
F1.0
sg917
g918
((lp3658
g881
atp3659
Rp3660
ss(g110
g567
tp3661
(dp3662
g851
(dp3663
g867
g870
sg881
g884
sg888
g891
sg895
g898
sg902
g905
sg909
g912
ssg916
F1.0
sg917
g918
((lp3664
g881
atp3665
Rp3666
ss(g94
g567
tp3667
(dp3668
g851
(dp3669
g881
g884
sg888
g891
sg867
g870
sg909
g912
ssg916
F1.0
sg917
g918
((lp3670
g881
atp3671
Rp3672
sssg748
(dp3673
(g89
g578
tp3674
(dp3675
g851
(dp3676
g860
g863
sg867
g870
sg874
g877
sg881
g884
sg888
g891
sg909
g912
ssg916
F1.0
sg917
g918
((lp3677
g874
atp3678
Rp3679
ss(g103
g571
tp3680
(dp3681
g851
(dp3682
g888
g891
sg860
g863
sg874
g877
sg909
g912
ssg916
F1.0
sg917
g918
((lp3683
g874
atp3684
Rp3685
ss(g99
g578
tp3686
(dp3687
g851
(dp3688
g853
g856
sg860
g863
sg874
g877
sg888
g891
sg902
g905
sg909
g912
ssg916
F1.0
sg917
g918
((lp3689
g874
atp3690
Rp3691
ss(g99
g571
tp3692
(dp3693
g851
(dp3694
g853
g856
sg860
g863
sg874
g877
sg888
g891
sg902
g905
sg909
g912
ssg916
F1.0
sg917
g918
((lp3695
g874
atp3696
Rp3697
ss(g118
g578
tp3698
(dp3699
g851
(dp3700
g853
g856
sg860
g863
sg867
g870
sg874
g877
sg881
g884
sg888
g891
sg895
g898
sg902
g905
sg909
g912
ssg916
F1.0
sg917
g918
((lp3701
g874
atp3702
Rp3703
ss(g103
g578
tp3704
(dp3705
g851
(dp3706
g888
g891
sg860
g863
sg874
g877
sg909
g912
ssg916
F1.0
sg917
g918
((lp3707
g874
atp3708
Rp3709
ss(g89
g571
tp3710
(dp3711
g851
(dp3712
g860
g863
sg867
g870
sg874
g877
sg881
g884
sg888
g891
sg909
g912
ssg916
F1.0
sg917
g918
((lp3713
g874
atp3714
Rp3715
sssg750
(dp3716
(g94
g2051
tp3717
(dp3718
g851
(dp3719
g853
g856
sg860
g863
sg874
g877
sg888
g891
sg902
g905
sg909
g912
ssg916
F1.0
sg917
g918
((lp3720
g853
atp3721
Rp3722
ss(g115
g567
tp3723
(dp3724
g851
(dp3725
g853
g856
sg860
g863
sg867
g870
sg888
g891
sg895
g898
sg902
g905
ssg916
F1.0
sg917
g918
((lp3726
g853
atp3727
Rp3728
ss(g110
g2051
tp3729
(dp3730
g851
(dp3731
g888
g891
sg853
g856
sg902
g905
sg860
g863
ssg916
F1.0
sg917
g918
((lp3732
g853
atp3733
Rp3734
ss(g120
g2051
tp3735
(dp3736
g851
(dp3737
g853
g856
sg860
g863
sg867
g870
sg874
g877
sg881
g884
sg888
g891
sg895
g898
sg902
g905
sg909
g912
ssg916
F1.0
sg917
g918
((lp3738
g853
atp3739
Rp3740
ss(g110
g567
tp3741
(dp3742
g851
(dp3743
g888
g891
sg853
g856
sg902
g905
sg860
g863
ssg916
F1.0
sg917
g918
((lp3744
g853
atp3745
Rp3746
ss(g94
g567
tp3747
(dp3748
g851
(dp3749
g853
g856
sg860
g863
sg874
g877
sg888
g891
sg902
g905
sg909
g912
ssg916
F1.0
sg917
g918
((lp3750
g853
atp3751
Rp3752
ss(g115
g2051
tp3753
(dp3754
g851
(dp3755
g853
g856
sg860
g863
sg867
g870
sg888
g891
sg895
g898
sg902
g905
ssg916
F1.0
sg917
g918
((lp3756
g853
atp3757
Rp3758
sssg752
(dp3759
(g103
g583
tp3760
(dp3761
g851
(dp3762
g867
g870
sg881
g884
sg888
g891
sg895
g898
sg902
g905
sg909
g912
ssg916
F1.0
sg917
g918
((lp3763
g881
atp3764
Rp3765
ss(g88
g618
tp3766
(dp3767
g851
(dp3768
g860
g863
sg867
g870
sg874
g877
sg881
g884
sg888
g891
sg909
g912
ssg916
F1.0
sg917
g918
((lp3769
g881
atp3770
Rp3771
ss(g88
g583
tp3772
(dp3773
g851
(dp3774
g860
g863
sg867
g870
sg874
g877
sg881
g884
sg888
g891
sg909
g912
ssg916
F1.0
sg917
g918
((lp3775
g881
atp3776
Rp3777
ss(g109
g583
tp3778
(dp3779
g851
(dp3780
g853
g856
sg860
g863
sg867
g870
sg874
g877
sg881
g884
sg888
g891
sg895
g898
sg902
g905
sg909
g912
ssg916
F1.0
sg917
g918
((lp3781
g881
atp3782
Rp3783
ss(g90
g618
tp3784
(dp3785
g851
(dp3786
g881
g884
sg888
g891
sg867
g870
sg909
g912
ssg916
F1.0
sg917
g918
((lp3787
g881
atp3788
Rp3789
ss(g90
g583
tp3790
(dp3791
g851
(dp3792
g881
g884
sg888
g891
sg867
g870
sg909
g912
ssg916
F1.0
sg917
g918
((lp3793
g881
atp3794
Rp3795
sssg754
(dp3796
(g129
g567
tp3797
(dp3798
g851
(dp3799
g853
g856
sg860
g863
sg867
g870
sg888
g891
sg895
g898
sg902
g905
ssg916
F1.0
sg917
g918
((lp3800
g895
atp3801
Rp3802
ss(g110
g2051
tp3803
(dp3804
g851
(dp3805
g888
g891
sg895
g898
sg867
g870
sg902
g905
ssg916
F1.0
sg917
g918
((lp3806
g895
atp3807
Rp3808
ss(g118
g567
tp3809
(dp3810
g851
(dp3811
g853
g856
sg860
g863
sg867
g870
sg874
g877
sg881
g884
sg888
g891
sg895
g898
sg902
g905
sg909
g912
ssg916
F1.0
sg917
g918
((lp3812
g895
atp3813
Rp3814
ss(g94
g2051
tp3815
(dp3816
g851
(dp3817
g867
g870
sg881
g884
sg888
g891
sg895
g898
sg902
g905
sg909
g912
ssg916
F1.0
sg917
g918
((lp3818
g895
atp3819
Rp3820
ss(g110
g567
tp3821
(dp3822
g851
(dp3823
g888
g891
sg895
g898
sg867
g870
sg902
g905
ssg916
F1.0
sg917
g918
((lp3824
g895
atp3825
Rp3826
ss(g94
g567
tp3827
(dp3828
g851
(dp3829
g867
g870
sg881
g884
sg888
g891
sg895
g898
sg902
g905
sg909
g912
ssg916
F1.0
sg917
g918
((lp3830
g895
atp3831
Rp3832
sssg756
(dp3833
(g103
g1024
tp3834
(dp3835
g851
(dp3836
g853
g856
sg860
g863
sg867
g870
sg874
g877
sg881
g884
sg888
g891
sg895
g898
sg902
g905
sg909
g912
ssg916
F1.0
sg917
g918
((lp3837
g909
atp3838
Rp3839
ss(g89
g1024
tp3840
(dp3841
g851
(dp3842
g867
g870
sg881
g884
sg888
g891
sg895
g898
sg902
g905
sg909
g912
ssg916
F1.0
sg917
g918
((lp3843
g909
atp3844
Rp3845
ss(g119
g707
tp3846
(dp3847
g851
(dp3848
g881
g884
sg888
g891
sg867
g870
sg909
g912
ssg916
F1.0
sg917
g918
((lp3849
g909
atp3850
Rp3851
ss(g88
g707
tp3852
(dp3853
g851
(dp3854
g888
g891
sg860
g863
sg874
g877
sg909
g912
ssg916
F1.0
sg917
g918
((lp3855
g909
atp3856
Rp3857
ss(g90
g1024
tp3858
(dp3859
g851
(dp3860
g860
g863
sg867
g870
sg874
g877
sg881
g884
sg888
g891
sg909
g912
ssg916
F1.0
sg917
g918
((lp3861
g909
atp3862
Rp3863
ss(g109
g1024
tp3864
(dp3865
g851
(dp3866
g853
g856
sg860
g863
sg874
g877
sg888
g891
sg902
g905
sg909
g912
ssg916
F1.0
sg917
g918
((lp3867
g909
atp3868
Rp3869
ss(g90
g707
tp3870
(dp3871
g851
(dp3872
g860
g863
sg867
g870
sg874
g877
sg881
g884
sg888
g891
sg909
g912
ssg916
F1.0
sg917
g918
((lp3873
g909
atp3874
Rp3875
ss(g119
g1024
tp3876
(dp3877
g851
(dp3878
g881
g884
sg888
g891
sg867
g870
sg909
g912
ssg916
F1.0
sg917
g918
((lp3879
g909
atp3880
Rp3881
ss(g88
g1024
tp3882
(dp3883
g851
(dp3884
g888
g891
sg860
g863
sg874
g877
sg909
g912
ssg916
F1.0
sg917
g918
((lp3885
g909
atp3886
Rp3887
sssg758
(dp3888
(g106
g571
tp3889
(dp3890
g851
(dp3891
g853
g856
sg860
g863
sg867
g870
sg874
g877
sg881
g884
sg888
g891
sg895
g898
sg902
g905
sg909
g912
ssg916
F1.0
sg917
g918
((lp3892
g895
atp3893
Rp3894
ss(g109
g578
tp3895
(dp3896
g851
(dp3897
g888
g891
sg895
g898
sg867
g870
sg902
g905
ssg916
F1.0
sg917
g918
((lp3898
g895
atp3899
Rp3900
ss(g95
g571
tp3901
(dp3902
g851
(dp3903
g853
g856
sg860
g863
sg867
g870
sg888
g891
sg895
g898
sg902
g905
ssg916
F1.0
sg917
g918
((lp3904
g895
atp3905
Rp3906
ss(g95
g578
tp3907
(dp3908
g851
(dp3909
g853
g856
sg860
g863
sg867
g870
sg888
g891
sg895
g898
sg902
g905
ssg916
F1.0
sg917
g918
((lp3910
g895
atp3911
Rp3912
ss(g88
g571
tp3913
(dp3914
g851
(dp3915
g867
g870
sg881
g884
sg888
g891
sg895
g898
sg902
g905
sg909
g912
ssg916
F1.0
sg917
g918
((lp3916
g895
atp3917
Rp3918
ss(g109
g571
tp3919
(dp3920
g851
(dp3921
g888
g891
sg895
g898
sg867
g870
sg902
g905
ssg916
F1.0
sg917
g918
((lp3922
g895
atp3923
Rp3924
sssg760
(dp3925
(g88
g618
tp3926
(dp3927
g851
(dp3928
g853
g856
sg860
g863
sg867
g870
sg874
g877
sg881
g884
sg888
g891
sg895
g898
sg902
g905
sg909
g912
ssg916
F1.0
sg917
g918
((lp3929
g881
atp3930
Rp3931
ss(g123
g583
tp3932
(dp3933
g851
(dp3934
g881
g884
sg888
g891
sg867
g870
sg909
g912
ssg916
F1.0
sg917
g918
((lp3935
g881
atp3936
Rp3937
ss(g90
g583
tp3938
(dp3939
g851
(dp3940
g867
g870
sg881
g884
sg888
g891
sg895
g898
sg902
g905
sg909
g912
ssg916
F1.0
sg917
g918
((lp3941
g881
atp3942
Rp3943
ss(g131
g583
tp3944
(dp3945
g851
(dp3946
g860
g863
sg867
g870
sg874
g877
sg881
g884
sg888
g891
sg909
g912
ssg916
F1.0
sg917
g918
((lp3947
g881
atp3948
Rp3949
ss(g90
g618
tp3950
(dp3951
g851
(dp3952
g867
g870
sg881
g884
sg888
g891
sg895
g898
sg902
g905
sg909
g912
ssg916
F1.0
sg917
g918
((lp3953
g881
atp3954
Rp3955
ss(g123
g618
tp3956
(dp3957
g851
(dp3958
g881
g884
sg888
g891
sg867
g870
sg909
g912
ssg916
F1.0
sg917
g918
((lp3959
g881
atp3960
Rp3961
ss(g131
g618
tp3962
(dp3963
g851
(dp3964
g860
g863
sg867
g870
sg874
g877
sg881
g884
sg888
g891
sg909
g912
ssg916
F1.0
sg917
g918
((lp3965
g881
atp3966
Rp3967
sssg762
(dp3968
(g103
g583
tp3969
(dp3970
g851
(dp3971
g860
g863
sg867
g870
sg874
g877
sg881
g884
sg888
g891
sg909
g912
ssg916
F1.0
sg917
g918
((lp3972
g874
atp3973
Rp3974
ss(g109
g583
tp3975
(dp3976
g851
(dp3977
g888
g891
sg860
g863
sg874
g877
sg909
g912
ssg916
F1.0
sg917
g918
((lp3978
g874
atp3979
Rp3980
ss(g99
g583
tp3981
(dp3982
g851
(dp3983
g853
g856
sg860
g863
sg867
g870
sg874
g877
sg881
g884
sg888
g891
sg895
g898
sg902
g905
sg909
g912
ssg916
F1.0
sg917
g918
((lp3984
g874
atp3985
Rp3986
ss(g111
g583
tp3987
(dp3988
g851
(dp3989
g853
g856
sg860
g863
sg874
g877
sg888
g891
sg902
g905
sg909
g912
ssg916
F1.0
sg917
g918
((lp3990
g874
atp3991
Rp3992
sssg764
(dp3993
(g122
g583
tp3994
(dp3995
g851
(dp3996
g860
g863
sg867
g870
sg874
g877
sg881
g884
sg888
g891
sg909
g912
ssg916
F1.0
sg917
g918
((lp3997
g881
atp3998
Rp3999
ss(g129
g583
tp4000
(dp4001
g851
(dp4002
g881
g884
sg888
g891
sg867
g870
sg909
g912
ssg916
F1.0
sg917
g918
((lp4003
g881
atp4004
Rp4005
ss(g100
g583
tp4006
(dp4007
g851
(dp4008
g867
g870
sg881
g884
sg888
g891
sg895
g898
sg902
g905
sg909
g912
ssg916
F1.0
sg917
g918
((lp4009
g881
atp4010
Rp4011
ss(g126
g583
tp4012
(dp4013
g851
(dp4014
g853
g856
sg860
g863
sg867
g870
sg874
g877
sg881
g884
sg888
g891
sg895
g898
sg902
g905
sg909
g912
ssg916
F1.0
sg917
g918
((lp4015
g881
atp4016
Rp4017
sssg766
(dp4018
(g110
g583
tp4019
(dp4020
g851
(dp4021
g853
g856
sg860
g863
sg874
g877
sg888
g891
sg902
g905
sg909
g912
ssg916
F1.0
sg917
g918
((lp4022
g874
atp4023
Rp4024
ss(g115
g583
tp4025
(dp4026
g851
(dp4027
g853
g856
sg860
g863
sg867
g870
sg874
g877
sg881
g884
sg888
g891
sg895
g898
sg902
g905
sg909
g912
ssg916
F1.0
sg917
g918
((lp4028
g874
atp4029
Rp4030
ss(g120
g583
tp4031
(dp4032
g851
(dp4033
g860
g863
sg867
g870
sg874
g877
sg881
g884
sg888
g891
sg909
g912
ssg916
F1.0
sg917
g918
((lp4034
g874
atp4035
Rp4036
ss(g94
g583
tp4037
(dp4038
g851
(dp4039
g888
g891
sg860
g863
sg874
g877
sg909
g912
ssg916
F1.0
sg917
g918
((lp4040
g874
atp4041
Rp4042
sssg768
(dp4043
(g92
g583
tp4044
(dp4045
g851
(dp4046
g867
g870
sg881
g884
sg888
g891
sg895
g898
sg902
g905
sg909
g912
ssg916
F1.0
sg917
g918
((lp4047
g895
atp4048
Rp4049
ss(g131
g583
tp4050
(dp4051
g851
(dp4052
g888
g891
sg895
g898
sg867
g870
sg902
g905
ssg916
F1.0
sg917
g918
((lp4053
g895
atp4054
Rp4055
ss(g96
g618
tp4056
(dp4057
g851
(dp4058
g853
g856
sg860
g863
sg867
g870
sg874
g877
sg881
g884
sg888
g891
sg895
g898
sg902
g905
sg909
g912
ssg916
F1.0
sg917
g918
((lp4059
g895
atp4060
Rp4061
ss(g132
g583
tp4062
(dp4063
g851
(dp4064
g853
g856
sg860
g863
sg867
g870
sg888
g891
sg895
g898
sg902
g905
ssg916
F1.0
sg917
g918
((lp4065
g895
atp4066
Rp4067
ss(g131
g618
tp4068
(dp4069
g851
(dp4070
g888
g891
sg895
g898
sg867
g870
sg902
g905
ssg916
F1.0
sg917
g918
((lp4071
g895
atp4072
Rp4073
ss(g132
g618
tp4074
(dp4075
g851
(dp4076
g853
g856
sg860
g863
sg867
g870
sg888
g891
sg895
g898
sg902
g905
ssg916
F1.0
sg917
g918
((lp4077
g895
atp4078
Rp4079
ss(g92
g618
tp4080
(dp4081
g851
(dp4082
g867
g870
sg881
g884
sg888
g891
sg895
g898
sg902
g905
sg909
g912
ssg916
F1.0
sg917
g918
((lp4083
g895
atp4084
Rp4085
sssg770
(dp4086
(g92
g583
tp4087
(dp4088
g851
(dp4089
g860
g863
sg867
g870
sg874
g877
sg881
g884
sg888
g891
sg909
g912
ssg916
F1.0
sg917
g918
((lp4090
g881
atp4091
Rp4092
ss(g123
g583
tp4093
(dp4094
g851
(dp4095
g867
g870
sg881
g884
sg888
g891
sg895
g898
sg902
g905
sg909
g912
ssg916
F1.0
sg917
g918
((lp4096
g881
atp4097
Rp4098
ss(g104
g618
tp4099
(dp4100
g851
(dp4101
g881
g884
sg888
g891
sg867
g870
sg909
g912
ssg916
F1.0
sg917
g918
((lp4102
g881
atp4103
Rp4104
ss(g104
g583
tp4105
(dp4106
g851
(dp4107
g881
g884
sg888
g891
sg867
g870
sg909
g912
ssg916
F1.0
sg917
g918
((lp4108
g881
atp4109
Rp4110
ss(g123
g618
tp4111
(dp4112
g851
(dp4113
g867
g870
sg881
g884
sg888
g891
sg895
g898
sg902
g905
sg909
g912
ssg916
F1.0
sg917
g918
((lp4114
g881
atp4115
Rp4116
ss(g131
g618
tp4117
(dp4118
g851
(dp4119
g853
g856
sg860
g863
sg867
g870
sg874
g877
sg881
g884
sg888
g891
sg895
g898
sg902
g905
sg909
g912
ssg916
F1.0
sg917
g918
((lp4120
g881
atp4121
Rp4122
ss(g92
g618
tp4123
(dp4124
g851
(dp4125
g860
g863
sg867
g870
sg874
g877
sg881
g884
sg888
g891
sg909
g912
ssg916
F1.0
sg917
g918
((lp4126
g881
atp4127
Rp4128
sssg772
(dp4129
(g120
g2051
tp4130
(dp4131
g851
(dp4132
g867
g870
sg881
g884
sg888
g891
sg895
g898
sg902
g905
sg909
g912
ssg916
F1.0
sg917
g918
((lp4133
g895
atp4134
Rp4135
ssg744
(dp4136
g851
(dp4137
g888
g891
sg895
g898
sg867
g870
sg902
g905
ssg916
F1.0
sg917
g918
((lp4138
g895
atp4139
Rp4140
ss(g110
g2051
tp4141
(dp4142
g851
(dp4143
g853
g856
sg860
g863
sg867
g870
sg888
g891
sg895
g898
sg902
g905
ssg916
F1.0
sg917
g918
((lp4144
g895
atp4145
Rp4146
ss(g94
g2051
tp4147
(dp4148
g851
(dp4149
g853
g856
sg860
g863
sg867
g870
sg874
g877
sg881
g884
sg888
g891
sg895
g898
sg902
g905
sg909
g912
ssg916
F1.0
sg917
g918
((lp4150
g895
atp4151
Rp4152
ssg647
(dp4153
g851
(dp4154
g853
g856
sg860
g863
sg867
g870
sg888
g891
sg895
g898
sg902
g905
ssg916
F1.0
sg917
g918
((lp4155
g895
atp4156
Rp4157
ss(g120
g567
tp4158
(dp4159
g851
(dp4160
g867
g870
sg881
g884
sg888
g891
sg895
g898
sg902
g905
sg909
g912
ssg916
F1.0
sg917
g918
((lp4161
g895
atp4162
Rp4163
ss(g115
g2051
tp4164
(dp4165
g851
(dp4166
g888
g891
sg895
g898
sg867
g870
sg902
g905
ssg916
F1.0
sg917
g918
((lp4167
g895
atp4168
Rp4169
sssg774
(dp4170
(g122
g1024
tp4171
(dp4172
g851
(dp4173
g853
g856
sg860
g863
sg867
g870
sg874
g877
sg881
g884
sg888
g891
sg895
g898
sg902
g905
sg909
g912
ssg916
F1.0
sg917
g918
((lp4174
g909
atp4175
Rp4176
ss(g129
g1024
tp4177
(dp4178
g851
(dp4179
g867
g870
sg881
g884
sg888
g891
sg895
g898
sg902
g905
sg909
g912
ssg916
F1.0
sg917
g918
((lp4180
g909
atp4181
Rp4182
ss(g91
g1024
tp4183
(dp4184
g851
(dp4185
g853
g856
sg860
g863
sg874
g877
sg888
g891
sg902
g905
sg909
g912
ssg916
F1.0
sg917
g918
((lp4186
g909
atp4187
Rp4188
ss(g118
g1024
tp4189
(dp4190
g851
(dp4191
g881
g884
sg888
g891
sg867
g870
sg909
g912
ssg916
F1.0
sg917
g918
((lp4192
g909
atp4193
Rp4194
ss(g99
g1024
tp4195
(dp4196
g851
(dp4197
g860
g863
sg867
g870
sg874
g877
sg881
g884
sg888
g891
sg909
g912
ssg916
F1.0
sg917
g918
((lp4198
g909
atp4199
Rp4200
ss(g111
g1024
tp4201
(dp4202
g851
(dp4203
g888
g891
sg860
g863
sg874
g877
sg909
g912
ssg916
F1.0
sg917
g918
((lp4204
g909
atp4205
Rp4206
sssg776
(dp4207
(g110
g583
tp4208
(dp4209
g851
(dp4210
g860
g863
sg867
g870
sg874
g877
sg881
g884
sg888
g891
sg909
g912
ssg916
F1.0
sg917
g918
((lp4211
g874
atp4212
Rp4213
ss(g129
g583
tp4214
(dp4215
g851
(dp4216
g888
g891
sg860
g863
sg874
g877
sg909
g912
ssg916
F1.0
sg917
g918
((lp4217
g874
atp4218
Rp4219
ss(g100
g583
tp4220
(dp4221
g851
(dp4222
g853
g856
sg860
g863
sg874
g877
sg888
g891
sg902
g905
sg909
g912
ssg916
F1.0
sg917
g918
((lp4223
g874
atp4224
Rp4225
ss(g112
g583
tp4226
(dp4227
g851
(dp4228
g853
g856
sg860
g863
sg867
g870
sg874
g877
sg881
g884
sg888
g891
sg895
g898
sg902
g905
sg909
g912
ssg916
F1.0
sg917
g918
((lp4229
g874
atp4230
Rp4231
sssg778
(dp4232
(g120
g2051
tp4233
(dp4234
g851
(dp4235
g853
g856
sg860
g863
sg867
g870
sg888
g891
sg895
g898
sg902
g905
ssg916
F1.0
sg917
g918
((lp4236
g853
atp4237
Rp4238
ss(g108
g567
tp4239
(dp4240
g851
(dp4241
g853
g856
sg860
g863
sg867
g870
sg874
g877
sg881
g884
sg888
g891
sg895
g898
sg902
g905
sg909
g912
ssg916
F1.0
sg917
g918
((lp4242
g853
atp4243
Rp4244
ss(g120
g567
tp4245
(dp4246
g851
(dp4247
g853
g856
sg860
g863
sg867
g870
sg888
g891
sg895
g898
sg902
g905
ssg916
F1.0
sg917
g918
((lp4248
g853
atp4249
Rp4250
ss(g94
g2051
tp4251
(dp4252
g851
(dp4253
g888
g891
sg853
g856
sg902
g905
sg860
g863
ssg916
F1.0
sg917
g918
((lp4254
g853
atp4255
Rp4256
ss(g86
g567
tp4257
(dp4258
g851
(dp4259
g853
g856
sg860
g863
sg874
g877
sg888
g891
sg902
g905
sg909
g912
ssg916
F1.0
sg917
g918
((lp4260
g853
atp4261
Rp4262
ss(g94
g567
tp4263
(dp4264
g851
(dp4265
g888
g891
sg853
g856
sg902
g905
sg860
g863
ssg916
F1.0
sg917
g918
((lp4266
g853
atp4267
Rp4268
sssg780
(dp4269
(g87
g583
tp4270
(dp4271
g851
(dp4272
g853
g856
sg860
g863
sg867
g870
sg874
g877
sg881
g884
sg888
g891
sg895
g898
sg902
g905
sg909
g912
ssg916
F1.0
sg917
g918
((lp4273
g874
atp4274
Rp4275
ssg736
(dp4276
g851
(dp4277
g853
g856
sg860
g863
sg874
g877
sg888
g891
sg902
g905
sg909
g912
ssg916
F1.0
sg917
g918
((lp4278
g874
atp4279
Rp4280
ssg697
(dp4281
g851
(dp4282
g888
g891
sg860
g863
sg874
g877
sg909
g912
ssg916
F1.0
sg917
g918
((lp4283
g874
atp4284
Rp4285
ssg616
(dp4286
g851
(dp4287
g860
g863
sg867
g870
sg874
g877
sg881
g884
sg888
g891
sg909
g912
ssg916
F1.0
sg917
g918
((lp4288
g874
atp4289
Rp4290
sssg782
(dp4291
(g115
g567
tp4292
(dp4293
g851
(dp4294
g860
g863
sg867
g870
sg874
g877
sg881
g884
sg888
g891
sg909
g912
ssg916
F1.0
sg917
g918
((lp4295
g874
atp4296
Rp4297
ss(g110
g2051
tp4298
(dp4299
g851
(dp4300
g888
g891
sg860
g863
sg874
g877
sg909
g912
ssg916
F1.0
sg917
g918
((lp4301
g874
atp4302
Rp4303
ss(g110
g567
tp4304
(dp4305
g851
(dp4306
g888
g891
sg860
g863
sg874
g877
sg909
g912
ssg916
F1.0
sg917
g918
((lp4307
g874
atp4308
Rp4309
ss(g112
g567
tp4310
(dp4311
g851
(dp4312
g853
g856
sg860
g863
sg874
g877
sg888
g891
sg902
g905
sg909
g912
ssg916
F1.0
sg917
g918
((lp4313
g874
atp4314
Rp4315
ss(g102
g2051
tp4316
(dp4317
g851
(dp4318
g853
g856
sg860
g863
sg867
g870
sg874
g877
sg881
g884
sg888
g891
sg895
g898
sg902
g905
sg909
g912
ssg916
F1.0
sg917
g918
((lp4319
g874
atp4320
Rp4321
ss(g112
g2051
tp4322
(dp4323
g851
(dp4324
g853
g856
sg860
g863
sg874
g877
sg888
g891
sg902
g905
sg909
g912
ssg916
F1.0
sg917
g918
((lp4325
g874
atp4326
Rp4327
ss(g115
g2051
tp4328
(dp4329
g851
(dp4330
g860
g863
sg867
g870
sg874
g877
sg881
g884
sg888
g891
sg909
g912
ssg916
F1.0
sg917
g918
((lp4331
g874
atp4332
Rp4333
sssg784
(dp4334
(g119
g567
tp4335
(dp4336
g851
(dp4337
g853
g856
sg860
g863
sg867
g870
sg888
g891
sg895
g898
sg902
g905
ssg916
F1.0
sg917
g918
((lp4338
g895
atp4339
Rp4340
ss(g125
g567
tp4341
(dp4342
g851
(dp4343
g853
g856
sg860
g863
sg867
g870
sg874
g877
sg881
g884
sg888
g891
sg895
g898
sg902
g905
sg909
g912
ssg916
F1.0
sg917
g918
((lp4344
g895
atp4345
Rp4346
ss(g107
g567
tp4347
(dp4348
g851
(dp4349
g888
g891
sg895
g898
sg867
g870
sg902
g905
ssg916
F1.0
sg917
g918
((lp4350
g895
atp4351
Rp4352
ss(g113
g567
tp4353
(dp4354
g851
(dp4355
g867
g870
sg881
g884
sg888
g891
sg895
g898
sg902
g905
sg909
g912
ssg916
F1.0
sg917
g918
((lp4356
g895
atp4357
Rp4358
sssg786
(dp4359
(g131
g567
tp4360
(dp4361
g851
(dp4362
g853
g856
sg860
g863
sg867
g870
sg874
g877
sg881
g884
sg888
g891
sg895
g898
sg902
g905
sg909
g912
ssg916
F1.0
sg917
g918
((lp4363
g895
atp4364
Rp4365
ss(g123
g567
tp4366
(dp4367
g851
(dp4368
g867
g870
sg881
g884
sg888
g891
sg895
g898
sg902
g905
sg909
g912
ssg916
F1.0
sg917
g918
((lp4369
g895
atp4370
Rp4371
ss(g90
g567
tp4372
(dp4373
g851
(dp4374
g888
g891
sg895
g898
sg867
g870
sg902
g905
ssg916
F1.0
sg917
g918
((lp4375
g895
atp4376
Rp4377
ss(g88
g567
tp4378
(dp4379
g851
(dp4380
g853
g856
sg860
g863
sg867
g870
sg888
g891
sg895
g898
sg902
g905
ssg916
F1.0
sg917
g918
((lp4381
g895
atp4382
Rp4383
sssg788
(dp4384
(g89
g578
tp4385
(dp4386
g851
(dp4387
g853
g856
sg860
g863
sg874
g877
sg888
g891
sg902
g905
sg909
g912
ssg916
F1.0
sg917
g918
((lp4388
g874
atp4389
Rp4390
ssg572
(dp4391
g851
(dp4392
g888
g891
sg860
g863
sg874
g877
sg909
g912
ssg916
F1.0
sg917
g918
((lp4393
g874
atp4394
Rp4395
ss(g86
g571
tp4396
(dp4397
g851
(dp4398
g853
g856
sg860
g863
sg867
g870
sg874
g877
sg881
g884
sg888
g891
sg895
g898
sg902
g905
sg909
g912
ssg916
F1.0
sg917
g918
((lp4399
g874
atp4400
Rp4401
ssg828
(dp4402
g851
(dp4403
g860
g863
sg867
g870
sg874
g877
sg881
g884
sg888
g891
sg909
g912
ssg916
F1.0
sg917
g918
((lp4404
g874
atp4405
Rp4406
ss(g89
g571
tp4407
(dp4408
g851
(dp4409
g853
g856
sg860
g863
sg874
g877
sg888
g891
sg902
g905
sg909
g912
ssg916
F1.0
sg917
g918
((lp4410
g874
atp4411
Rp4412
sssg790
(dp4413
(g97
g583
tp4414
(dp4415
g851
(dp4416
g853
g856
sg860
g863
sg867
g870
sg874
g877
sg881
g884
sg888
g891
sg895
g898
sg902
g905
sg909
g912
ssg916
F1.0
sg917
g918
((lp4417
g874
atp4418
Rp4419
ss(g115
g583
tp4420
(dp4421
g851
(dp4422
g853
g856
sg860
g863
sg874
g877
sg888
g891
sg902
g905
sg909
g912
ssg916
F1.0
sg917
g918
((lp4423
g874
atp4424
Rp4425
ss(g120
g583
tp4426
(dp4427
g851
(dp4428
g888
g891
sg860
g863
sg874
g877
sg909
g912
ssg916
F1.0
sg917
g918
((lp4429
g874
atp4430
Rp4431
ss(g98
g583
tp4432
(dp4433
g851
(dp4434
g860
g863
sg867
g870
sg874
g877
sg881
g884
sg888
g891
sg909
g912
ssg916
F1.0
sg917
g918
((lp4435
g874
atp4436
Rp4437
sssg792
(dp4438
(g108
g567
tp4439
(dp4440
g851
(dp4441
g867
g870
sg881
g884
sg888
g891
sg895
g898
sg902
g905
sg909
g912
ssg916
F1.0
sg917
g918
((lp4442
g895
atp4443
Rp4444
ss(g120
g2051
tp4445
(dp4446
g851
(dp4447
g888
g891
sg895
g898
sg867
g870
sg902
g905
ssg916
F1.0
sg917
g918
((lp4448
g895
atp4449
Rp4450
ss(g94
g567
tp4451
(dp4452
g851
(dp4453
g853
g856
sg860
g863
sg867
g870
sg888
g891
sg895
g898
sg902
g905
ssg916
F1.0
sg917
g918
((lp4454
g895
atp4455
Rp4456
ss(g94
g2051
tp4457
(dp4458
g851
(dp4459
g853
g856
sg860
g863
sg867
g870
sg888
g891
sg895
g898
sg902
g905
ssg916
F1.0
sg917
g918
((lp4460
g895
atp4461
Rp4462
ss(g86
g567
tp4463
(dp4464
g851
(dp4465
g853
g856
sg860
g863
sg867
g870
sg874
g877
sg881
g884
sg888
g891
sg895
g898
sg902
g905
sg909
g912
ssg916
F1.0
sg917
g918
((lp4466
g895
atp4467
Rp4468
ss(g120
g567
tp4469
(dp4470
g851
(dp4471
g888
g891
sg895
g898
sg867
g870
sg902
g905
ssg916
F1.0
sg917
g918
((lp4472
g895
atp4473
Rp4474
sssg794
(dp4475
(g121
g571
tp4476
(dp4477
g851
(dp4478
g853
g856
sg860
g863
sg867
g870
sg888
g891
sg895
g898
sg902
g905
ssg916
F1.0
sg917
g918
((lp4479
g895
atp4480
Rp4481
ss(g109
g578
tp4482
(dp4483
g851
(dp4484
g867
g870
sg881
g884
sg888
g891
sg895
g898
sg902
g905
sg909
g912
ssg916
F1.0
sg917
g918
((lp4485
g895
atp4486
Rp4487
ss(g121
g578
tp4488
(dp4489
g851
(dp4490
g853
g856
sg860
g863
sg867
g870
sg888
g891
sg895
g898
sg902
g905
ssg916
F1.0
sg917
g918
((lp4491
g895
atp4492
Rp4493
ss(g111
g571
tp4494
(dp4495
g851
(dp4496
g888
g891
sg895
g898
sg867
g870
sg902
g905
ssg916
F1.0
sg917
g918
((lp4497
g895
atp4498
Rp4499
ss(g111
g578
tp4500
(dp4501
g851
(dp4502
g888
g891
sg895
g898
sg867
g870
sg902
g905
ssg916
F1.0
sg917
g918
((lp4503
g895
atp4504
Rp4505
ss(g95
g578
tp4506
(dp4507
g851
(dp4508
g853
g856
sg860
g863
sg867
g870
sg874
g877
sg881
g884
sg888
g891
sg895
g898
sg902
g905
sg909
g912
ssg916
F1.0
sg917
g918
((lp4509
g895
atp4510
Rp4511
ss(g109
g571
tp4512
(dp4513
g851
(dp4514
g867
g870
sg881
g884
sg888
g891
sg895
g898
sg902
g905
sg909
g912
ssg916
F1.0
sg917
g918
((lp4515
g895
atp4516
Rp4517
sssg796
(dp4518
(g120
g571
tp4519
(dp4520
g851
(dp4521
g853
g856
sg860
g863
sg874
g877
sg888
g891
sg902
g905
sg909
g912
ssg916
F1.0
sg917
g918
((lp4522
g853
atp4523
Rp4524
ss(g98
g571
tp4525
(dp4526
g851
(dp4527
g853
g856
sg860
g863
sg867
g870
sg874
g877
sg881
g884
sg888
g891
sg895
g898
sg902
g905
sg909
g912
ssg916
F1.0
sg917
g918
((lp4528
g853
atp4529
Rp4530
ss(g97
g571
tp4531
(dp4532
g851
(dp4533
g853
g856
sg860
g863
sg867
g870
sg888
g891
sg895
g898
sg902
g905
ssg916
F1.0
sg917
g918
((lp4534
g853
atp4535
Rp4536
ss(g115
g571
tp4537
(dp4538
g851
(dp4539
g888
g891
sg853
g856
sg902
g905
sg860
g863
ssg916
F1.0
sg917
g918
((lp4540
g853
atp4541
Rp4542
sssg798
(dp4543
(g84
g583
tp4544
(dp4545
g851
(dp4546
g860
g863
sg867
g870
sg874
g877
sg881
g884
sg888
g891
sg909
g912
ssg916
F1.0
sg917
g918
((lp4547
g874
atp4548
Rp4549
ss(g108
g583
tp4550
(dp4551
g851
(dp4552
g888
g891
sg860
g863
sg874
g877
sg909
g912
ssg916
F1.0
sg917
g918
((lp4553
g874
atp4554
Rp4555
ss(g120
g583
tp4556
(dp4557
g851
(dp4558
g853
g856
sg860
g863
sg874
g877
sg888
g891
sg902
g905
sg909
g912
ssg916
F1.0
sg917
g918
((lp4559
g874
atp4560
Rp4561
ss(g98
g583
tp4562
(dp4563
g851
(dp4564
g853
g856
sg860
g863
sg867
g870
sg874
g877
sg881
g884
sg888
g891
sg895
g898
sg902
g905
sg909
g912
ssg916
F1.0
sg917
g918
((lp4565
g874
atp4566
Rp4567
sssg800
(dp4568
(g91
g583
tp4569
(dp4570
g851
(dp4571
g881
g884
sg888
g891
sg867
g870
sg909
g912
ssg916
F1.0
sg917
g918
((lp4572
g881
atp4573
Rp4574
ss(g127
g583
tp4575
(dp4576
g851
(dp4577
g860
g863
sg867
g870
sg874
g877
sg881
g884
sg888
g891
sg909
g912
ssg916
F1.0
sg917
g918
((lp4578
g881
atp4579
Rp4580
ss(g128
g583
tp4581
(dp4582
g851
(dp4583
g853
g856
sg860
g863
sg867
g870
sg874
g877
sg881
g884
sg888
g891
sg895
g898
sg902
g905
sg909
g912
ssg916
F1.0
sg917
g918
((lp4584
g881
atp4585
Rp4586
ss(g117
g583
tp4587
(dp4588
g851
(dp4589
g867
g870
sg881
g884
sg888
g891
sg895
g898
sg902
g905
sg909
g912
ssg916
F1.0
sg917
g918
((lp4590
g881
atp4591
Rp4592
sssg802
(dp4593
(g86
g583
tp4594
(dp4595
g851
(dp4596
g853
g856
sg860
g863
sg867
g870
sg874
g877
sg881
g884
sg888
g891
sg895
g898
sg902
g905
sg909
g912
ssg916
F1.0
sg917
g918
((lp4597
g874
atp4598
Rp4599
ss(g89
g583
tp4600
(dp4601
g851
(dp4602
g853
g856
sg860
g863
sg874
g877
sg888
g891
sg902
g905
sg909
g912
ssg916
F1.0
sg917
g918
((lp4603
g874
atp4604
Rp4605
ssg627
(dp4606
g851
(dp4607
g888
g891
sg860
g863
sg874
g877
sg909
g912
ssg916
F1.0
sg917
g918
((lp4608
g874
atp4609
Rp4610
ssg818
(dp4611
g851
(dp4612
g888
g891
sg860
g863
sg874
g877
sg909
g912
ssg916
F1.0
sg917
g918
((lp4613
g874
atp4614
Rp4615
ssg599
(dp4616
g851
(dp4617
g860
g863
sg867
g870
sg874
g877
sg881
g884
sg888
g891
sg909
g912
ssg916
F1.0
sg917
g918
((lp4618
g874
atp4619
Rp4620
sssg804
(dp4621
(g109
g567
tp4622
(dp4623
g851
(dp4624
g888
g891
sg895
g898
sg867
g870
sg902
g905
ssg916
F1.0
sg917
g918
((lp4625
g895
atp4626
Rp4627
ss(g88
g567
tp4628
(dp4629
g851
(dp4630
g867
g870
sg881
g884
sg888
g891
sg895
g898
sg902
g905
sg909
g912
ssg916
F1.0
sg917
g918
((lp4631
g895
atp4632
Rp4633
ss(g106
g567
tp4634
(dp4635
g851
(dp4636
g853
g856
sg860
g863
sg867
g870
sg874
g877
sg881
g884
sg888
g891
sg895
g898
sg902
g905
sg909
g912
ssg916
F1.0
sg917
g918
((lp4637
g895
atp4638
Rp4639
ss(g95
g567
tp4640
(dp4641
g851
(dp4642
g853
g856
sg860
g863
sg867
g870
sg888
g891
sg895
g898
sg902
g905
ssg916
F1.0
sg917
g918
((lp4643
g895
atp4644
Rp4645
sssg806
(dp4646
(g107
g571
tp4647
(dp4648
g851
(dp4649
g853
g856
sg860
g863
sg874
g877
sg888
g891
sg902
g905
sg909
g912
ssg916
F1.0
sg917
g918
((lp4650
g853
atp4651
Rp4652
ss(g86
g571
tp4653
(dp4654
g851
(dp4655
g888
g891
sg853
g856
sg902
g905
sg860
g863
ssg916
F1.0
sg917
g918
((lp4656
g853
atp4657
Rp4658
ss(g93
g571
tp4659
(dp4660
g851
(dp4661
g853
g856
sg860
g863
sg867
g870
sg874
g877
sg881
g884
sg888
g891
sg895
g898
sg902
g905
sg909
g912
ssg916
F1.0
sg917
g918
((lp4662
g853
atp4663
Rp4664
ss(g108
g571
tp4665
(dp4666
g851
(dp4667
g853
g856
sg860
g863
sg867
g870
sg888
g891
sg895
g898
sg902
g905
ssg916
F1.0
sg917
g918
((lp4668
g853
atp4669
Rp4670
sssg808
(dp4671
(g113
g567
tp4672
(dp4673
g851
(dp4674
g853
g856
sg860
g863
sg867
g870
sg874
g877
sg881
g884
sg888
g891
sg895
g898
sg902
g905
sg909
g912
ssg916
F1.0
sg917
g918
((lp4675
g895
atp4676
Rp4677
ss(g107
g567
tp4678
(dp4679
g851
(dp4680
g853
g856
sg860
g863
sg867
g870
sg888
g891
sg895
g898
sg902
g905
ssg916
F1.0
sg917
g918
((lp4681
g895
atp4682
Rp4683
ss(g93
g567
tp4684
(dp4685
g851
(dp4686
g888
g891
sg895
g898
sg867
g870
sg902
g905
ssg916
F1.0
sg917
g918
((lp4687
g895
atp4688
Rp4689
ss(g101
g567
tp4690
(dp4691
g851
(dp4692
g867
g870
sg881
g884
sg888
g891
sg895
g898
sg902
g905
sg909
g912
ssg916
F1.0
sg917
g918
((lp4693
g895
atp4694
Rp4695
sssg810
(dp4696
g581
(dp4697
g851
(dp4698
g888
g891
sg853
g856
sg902
g905
sg860
g863
ssg916
F1.0
sg917
g918
((lp4699
g853
atp4700
Rp4701
ss(g97
g571
tp4702
(dp4703
g851
(dp4704
g853
g856
sg860
g863
sg867
g870
sg874
g877
sg881
g884
sg888
g891
sg895
g898
sg902
g905
sg909
g912
ssg916
F1.0
sg917
g918
((lp4705
g853
atp4706
Rp4707
ssg635
(dp4708
g851
(dp4709
g853
g856
sg860
g863
sg867
g870
sg888
g891
sg895
g898
sg902
g905
ssg916
F1.0
sg917
g918
((lp4710
g853
atp4711
Rp4712
ss(g115
g571
tp4713
(dp4714
g851
(dp4715
g853
g856
sg860
g863
sg874
g877
sg888
g891
sg902
g905
sg909
g912
ssg916
F1.0
sg917
g918
((lp4716
g853
atp4717
Rp4718
sssg812
(dp4719
(g89
g567
tp4720
(dp4721
g851
(dp4722
g888
g891
sg853
g856
sg902
g905
sg860
g863
ssg916
F1.0
sg917
g918
((lp4723
g853
atp4724
Rp4725
ss(g119
g567
tp4726
(dp4727
g851
(dp4728
g853
g856
sg860
g863
sg874
g877
sg888
g891
sg902
g905
sg909
g912
ssg916
F1.0
sg917
g918
((lp4729
g853
atp4730
Rp4731
ss(g107
g567
tp4732
(dp4733
g851
(dp4734
g853
g856
sg860
g863
sg867
g870
sg874
g877
sg881
g884
sg888
g891
sg895
g898
sg902
g905
sg909
g912
ssg916
F1.0
sg917
g918
((lp4735
g853
atp4736
Rp4737
ss(g86
g567
tp4738
(dp4739
g851
(dp4740
g853
g856
sg860
g863
sg867
g870
sg888
g891
sg895
g898
sg902
g905
ssg916
F1.0
sg917
g918
((lp4741
g853
atp4742
Rp4743
sssg814
(dp4744
(g91
g567
tp4745
(dp4746
g851
(dp4747
g867
g870
sg881
g884
sg888
g891
sg895
g898
sg902
g905
sg909
g912
ssg916
F1.0
sg917
g918
((lp4748
g881
atp4749
Rp4750
ss(g127
g567
tp4751
(dp4752
g851
(dp4753
g853
g856
sg860
g863
sg867
g870
sg874
g877
sg881
g884
sg888
g891
sg895
g898
sg902
g905
sg909
g912
ssg916
F1.0
sg917
g918
((lp4754
g881
atp4755
Rp4756
ss(g121
g567
tp4757
(dp4758
g851
(dp4759
g860
g863
sg867
g870
sg874
g877
sg881
g884
sg888
g891
sg909
g912
ssg916
F1.0
sg917
g918
((lp4760
g881
atp4761
Rp4762
ss(g111
g567
tp4763
(dp4764
g851
(dp4765
g881
g884
sg888
g891
sg867
g870
sg909
g912
ssg916
F1.0
sg917
g918
((lp4766
g881
atp4767
Rp4768
sssg816
(dp4769
(g103
g1024
tp4770
(dp4771
g851
(dp4772
g860
g863
sg867
g870
sg874
g877
sg881
g884
sg888
g891
sg909
g912
ssg916
F1.0
sg917
g918
((lp4773
g909
atp4774
Rp4775
ss(g109
g1024
tp4776
(dp4777
g851
(dp4778
g888
g891
sg860
g863
sg874
g877
sg909
g912
ssg916
F1.0
sg917
g918
((lp4779
g909
atp4780
Rp4781
ss(g89
g1024
tp4782
(dp4783
g851
(dp4784
g881
g884
sg888
g891
sg867
g870
sg909
g912
ssg916
F1.0
sg917
g918
((lp4785
g909
atp4786
Rp4787
ss(g118
g1024
tp4788
(dp4789
g851
(dp4790
g867
g870
sg881
g884
sg888
g891
sg895
g898
sg902
g905
sg909
g912
ssg916
F1.0
sg917
g918
((lp4791
g909
atp4792
Rp4793
ss(g99
g1024
tp4794
(dp4795
g851
(dp4796
g853
g856
sg860
g863
sg867
g870
sg874
g877
sg881
g884
sg888
g891
sg895
g898
sg902
g905
sg909
g912
ssg916
F1.0
sg917
g918
((lp4797
g909
atp4798
Rp4799
ss(g111
g1024
tp4800
(dp4801
g851
(dp4802
g853
g856
sg860
g863
sg874
g877
sg888
g891
sg902
g905
sg909
g912
ssg916
F1.0
sg917
g918
((lp4803
g909
atp4804
Rp4805
sssg818
(dp4806
g699
(dp4807
g851
(dp4808
g860
g863
sg867
g870
sg874
g877
sg881
g884
sg888
g891
sg909
g912
ssg916
F1.0
sg917
g918
((lp4809
g881
atp4810
Rp4811
ssg784
(dp4812
g851
(dp4813
g860
g863
sg867
g870
sg874
g877
sg881
g884
sg888
g891
sg909
g912
ssg916
F1.0
sg917
g918
((lp4814
g881
atp4815
Rp4816
ssg722
(dp4817
g851
(dp4818
g881
g884
sg888
g891
sg867
g870
sg909
g912
ssg916
F1.0
sg917
g918
((lp4819
g881
atp4820
Rp4821
ss(g119
g618
tp4822
(dp4823
g851
(dp4824
g853
g856
sg860
g863
sg867
g870
sg874
g877
sg881
g884
sg888
g891
sg895
g898
sg902
g905
sg909
g912
ssg916
F1.0
sg917
g918
((lp4825
g881
atp4826
Rp4827
ss(g107
g583
tp4828
(dp4829
g851
(dp4830
g867
g870
sg881
g884
sg888
g891
sg895
g898
sg902
g905
sg909
g912
ssg916
F1.0
sg917
g918
((lp4831
g881
atp4832
Rp4833
sssg820
(dp4834
(g101
g567
tp4835
(dp4836
g851
(dp4837
g853
g856
sg860
g863
sg867
g870
sg874
g877
sg881
g884
sg888
g891
sg895
g898
sg902
g905
sg909
g912
ssg916
F1.0
sg917
g918
((lp4838
g895
atp4839
Rp4840
ss(g114
g567
tp4841
(dp4842
g851
(dp4843
g888
g891
sg895
g898
sg867
g870
sg902
g905
ssg916
F1.0
sg917
g918
((lp4844
g895
atp4845
Rp4846
ss(g93
g567
tp4847
(dp4848
g851
(dp4849
g853
g856
sg860
g863
sg867
g870
sg888
g891
sg895
g898
sg902
g905
ssg916
F1.0
sg917
g918
((lp4850
g895
atp4851
Rp4852
ss(g87
g567
tp4853
(dp4854
g851
(dp4855
g867
g870
sg881
g884
sg888
g891
sg895
g898
sg902
g905
sg909
g912
ssg916
F1.0
sg917
g918
((lp4856
g895
atp4857
Rp4858
sssg822
(dp4859
(g118
g571
tp4860
(dp4861
g851
(dp4862
g853
g856
sg860
g863
sg867
g870
sg888
g891
sg895
g898
sg902
g905
ssg916
F1.0
sg917
g918
((lp4863
g853
atp4864
Rp4865
ss(g89
g578
tp4866
(dp4867
g851
(dp4868
g853
g856
sg860
g863
sg867
g870
sg874
g877
sg881
g884
sg888
g891
sg895
g898
sg902
g905
sg909
g912
ssg916
F1.0
sg917
g918
((lp4869
g853
atp4870
Rp4871
ss(g103
g571
tp4872
(dp4873
g851
(dp4874
g853
g856
sg860
g863
sg874
g877
sg888
g891
sg902
g905
sg909
g912
ssg916
F1.0
sg917
g918
((lp4875
g853
atp4876
Rp4877
ss(g118
g578
tp4878
(dp4879
g851
(dp4880
g853
g856
sg860
g863
sg867
g870
sg888
g891
sg895
g898
sg902
g905
ssg916
F1.0
sg917
g918
((lp4881
g853
atp4882
Rp4883
ssg734
(dp4884
g851
(dp4885
g888
g891
sg853
g856
sg902
g905
sg860
g863
ssg916
F1.0
sg917
g918
((lp4886
g853
atp4887
Rp4888
ssg816
(dp4889
g851
(dp4890
g888
g891
sg853
g856
sg902
g905
sg860
g863
ssg916
F1.0
sg917
g918
((lp4891
g853
atp4892
Rp4893
ss(g103
g578
tp4894
(dp4895
g851
(dp4896
g853
g856
sg860
g863
sg874
g877
sg888
g891
sg902
g905
sg909
g912
ssg916
F1.0
sg917
g918
((lp4897
g853
atp4898
Rp4899
sssg824
(dp4900
(g97
g583
tp4901
(dp4902
g851
(dp4903
g860
g863
sg867
g870
sg874
g877
sg881
g884
sg888
g891
sg909
g912
ssg916
F1.0
sg917
g918
((lp4904
g874
atp4905
Rp4906
ss(g115
g583
tp4907
(dp4908
g851
(dp4909
g888
g891
sg860
g863
sg874
g877
sg909
g912
ssg916
F1.0
sg917
g918
((lp4910
g874
atp4911
Rp4912
ss(g102
g583
tp4913
(dp4914
g851
(dp4915
g853
g856
sg860
g863
sg874
g877
sg888
g891
sg902
g905
sg909
g912
ssg916
F1.0
sg917
g918
((lp4916
g874
atp4917
Rp4918
ss(g124
g583
tp4919
(dp4920
g851
(dp4921
g853
g856
sg860
g863
sg867
g870
sg874
g877
sg881
g884
sg888
g891
sg895
g898
sg902
g905
sg909
g912
ssg916
F1.0
sg917
g918
((lp4922
g874
atp4923
Rp4924
sssg826
(dp4925
(g94
g2051
tp4926
(dp4927
g851
(dp4928
g888
g891
sg895
g898
sg867
g870
sg902
g905
ssg916
F1.0
sg917
g918
((lp4929
g895
atp4930
Rp4931
ss(g89
g567
tp4932
(dp4933
g851
(dp4934
g853
g856
sg860
g863
sg867
g870
sg874
g877
sg881
g884
sg888
g891
sg895
g898
sg902
g905
sg909
g912
ssg916
F1.0
sg917
g918
((lp4935
g895
atp4936
Rp4937
ss(g118
g567
tp4938
(dp4939
g851
(dp4940
g853
g856
sg860
g863
sg867
g870
sg888
g891
sg895
g898
sg902
g905
ssg916
F1.0
sg917
g918
((lp4941
g895
atp4942
Rp4943
ss(g86
g567
tp4944
(dp4945
g851
(dp4946
g867
g870
sg881
g884
sg888
g891
sg895
g898
sg902
g905
sg909
g912
ssg916
F1.0
sg917
g918
((lp4947
g895
atp4948
Rp4949
ss(g94
g567
tp4950
(dp4951
g851
(dp4952
g888
g891
sg895
g898
sg867
g870
sg902
g905
ssg916
F1.0
sg917
g918
((lp4953
g895
atp4954
Rp4955
sssg828
(dp4956
(g89
g578
tp4957
(dp4958
g851
(dp4959
g888
g891
sg853
g856
sg902
g905
sg860
g863
ssg916
F1.0
sg917
g918
((lp4960
g853
atp4961
Rp4962
ss(g107
g571
tp4963
(dp4964
g851
(dp4965
g853
g856
sg860
g863
sg867
g870
sg874
g877
sg881
g884
sg888
g891
sg895
g898
sg902
g905
sg909
g912
ssg916
F1.0
sg917
g918
((lp4966
g853
atp4967
Rp4968
ss(g86
g571
tp4969
(dp4970
g851
(dp4971
g853
g856
sg860
g863
sg867
g870
sg888
g891
sg895
g898
sg902
g905
ssg916
F1.0
sg917
g918
((lp4972
g853
atp4973
Rp4974
ss(g119
g571
tp4975
(dp4976
g851
(dp4977
g853
g856
sg860
g863
sg874
g877
sg888
g891
sg902
g905
sg909
g912
ssg916
F1.0
sg917
g918
((lp4978
g853
atp4979
Rp4980
ss(g89
g571
tp4981
(dp4982
g851
(dp4983
g888
g891
sg853
g856
sg902
g905
sg860
g863
ssg916
F1.0
sg917
g918
((lp4984
g853
atp4985
Rp4986
sssg830
(dp4987
(g127
g1024
tp4988
(dp4989
g851
(dp4990
g853
g856
sg860
g863
sg867
g870
sg888
g891
sg895
g898
sg902
g905
ssg916
F1.0
sg917
g918
((lp4991
g867
atp4992
Rp4993
ss(g95
g1024
tp4994
(dp4995
g851
(dp4996
g860
g863
sg867
g870
sg874
g877
sg881
g884
sg888
g891
sg909
g912
ssg916
F1.0
sg917
g918
((lp4997
g867
atp4998
Rp4999
ss(g91
g1024
tp5000
(dp5001
g851
(dp5002
g888
g891
sg895
g898
sg867
g870
sg902
g905
ssg916
F1.0
sg917
g918
((lp5003
g867
atp5004
Rp5005
ss(g109
g1024
tp5006
(dp5007
g851
(dp5008
g881
g884
sg888
g891
sg867
g870
sg909
g912
ssg916
F1.0
sg917
g918
((lp5009
g867
atp5010
Rp5011
ss(g121
g1024
tp5012
(dp5013
g851
(dp5014
g853
g856
sg860
g863
sg867
g870
sg874
g877
sg881
g884
sg888
g891
sg895
g898
sg902
g905
sg909
g912
ssg916
F1.0
sg917
g918
((lp5015
g867
atp5016
Rp5017
ss(g111
g1024
tp5018
(dp5019
g851
(dp5020
g867
g870
sg881
g884
sg888
g891
sg895
g898
sg902
g905
sg909
g912
ssg916
F1.0
sg917
g918
((lp5021
g867
atp5022
Rp5023
sssg832
(dp5024
(g115
g567
tp5025
(dp5026
g851
(dp5027
g888
g891
sg860
g863
sg874
g877
sg909
g912
ssg916
F1.0
sg917
g918
((lp5028
g874
atp5029
Rp5030
ss(g97
g2051
tp5031
(dp5032
g851
(dp5033
g860
g863
sg867
g870
sg874
g877
sg881
g884
sg888
g891
sg909
g912
ssg916
F1.0
sg917
g918
((lp5034
g874
atp5035
Rp5036
ss(g97
g567
tp5037
(dp5038
g851
(dp5039
g860
g863
sg867
g870
sg874
g877
sg881
g884
sg888
g891
sg909
g912
ssg916
F1.0
sg917
g918
((lp5040
g874
atp5041
Rp5042
ss(g102
g567
tp5043
(dp5044
g851
(dp5045
g853
g856
sg860
g863
sg874
g877
sg888
g891
sg902
g905
sg909
g912
ssg916
F1.0
sg917
g918
((lp5046
g874
atp5047
Rp5048
ss(g124
g2051
tp5049
(dp5050
g851
(dp5051
g853
g856
sg860
g863
sg867
g870
sg874
g877
sg881
g884
sg888
g891
sg895
g898
sg902
g905
sg909
g912
ssg916
F1.0
sg917
g918
((lp5052
g874
atp5053
Rp5054
ss(g102
g2051
tp5055
(dp5056
g851
(dp5057
g853
g856
sg860
g863
sg874
g877
sg888
g891
sg902
g905
sg909
g912
ssg916
F1.0
sg917
g918
((lp5058
g874
atp5059
Rp5060
ss(g115
g2051
tp5061
(dp5062
g851
(dp5063
g888
g891
sg860
g863
sg874
g877
sg909
g912
ssg916
F1.0
sg917
g918
((lp5064
g874
atp5065
Rp5066
sssg834
(dp5067
(g122
g1024
tp5068
(dp5069
g851
(dp5070
g860
g863
sg867
g870
sg874
g877
sg881
g884
sg888
g891
sg909
g912
ssg916
F1.0
sg917
g918
((lp5071
g909
atp5072
Rp5073
ss(g129
g1024
tp5074
(dp5075
g851
(dp5076
g881
g884
sg888
g891
sg867
g870
sg909
g912
ssg916
F1.0
sg917
g918
((lp5077
g909
atp5078
Rp5079
ss(g126
g1024
tp5080
(dp5081
g851
(dp5082
g853
g856
sg860
g863
sg867
g870
sg874
g877
sg881
g884
sg888
g891
sg895
g898
sg902
g905
sg909
g912
ssg916
F1.0
sg917
g918
((lp5083
g909
atp5084
Rp5085
ss(g91
g1024
tp5086
(dp5087
g851
(dp5088
g888
g891
sg860
g863
sg874
g877
sg909
g912
ssg916
F1.0
sg917
g918
((lp5089
g909
atp5090
Rp5091
ss(g117
g1024
tp5092
(dp5093
g851
(dp5094
g853
g856
sg860
g863
sg874
g877
sg888
g891
sg902
g905
sg909
g912
ssg916
F1.0
sg917
g918
((lp5095
g909
atp5096
Rp5097
ss(g100
g1024
tp5098
(dp5099
g851
(dp5100
g867
g870
sg881
g884
sg888
g891
sg895
g898
sg902
g905
sg909
g912
ssg916
F1.0
sg917
g918
((lp5101
g909
atp5102
Rp5103
sssg836
(dp5104
(g115
g567
tp5105
(dp5106
g851
(dp5107
g888
g891
sg853
g856
sg902
g905
sg860
g863
ssg916
F1.0
sg917
g918
((lp5108
g853
atp5109
Rp5110
ss(g98
g2051
tp5111
(dp5112
g851
(dp5113
g853
g856
sg860
g863
sg867
g870
sg874
g877
sg881
g884
sg888
g891
sg895
g898
sg902
g905
sg909
g912
ssg916
F1.0
sg917
g918
((lp5114
g853
atp5115
Rp5116
ss(g97
g2051
tp5117
(dp5118
g851
(dp5119
g853
g856
sg860
g863
sg867
g870
sg888
g891
sg895
g898
sg902
g905
ssg916
F1.0
sg917
g918
((lp5120
g853
atp5121
Rp5122
ss(g120
g2051
tp5123
(dp5124
g851
(dp5125
g853
g856
sg860
g863
sg874
g877
sg888
g891
sg902
g905
sg909
g912
ssg916
F1.0
sg917
g918
((lp5126
g853
atp5127
Rp5128
ss(g97
g567
tp5129
(dp5130
g851
(dp5131
g853
g856
sg860
g863
sg867
g870
sg888
g891
sg895
g898
sg902
g905
ssg916
F1.0
sg917
g918
((lp5132
g853
atp5133
Rp5134
ss(g120
g567
tp5135
(dp5136
g851
(dp5137
g853
g856
sg860
g863
sg874
g877
sg888
g891
sg902
g905
sg909
g912
ssg916
F1.0
sg917
g918
((lp5138
g853
atp5139
Rp5140
ss(g115
g2051
tp5141
(dp5142
g851
(dp5143
g888
g891
sg853
g856
sg902
g905
sg860
g863
ssg916
F1.0
sg917
g918
((lp5144
g853
atp5145
Rp5146
sssg838
(dp5147
(g99
g571
tp5148
(dp5149
g851
(dp5150
g853
g856
sg860
g863
sg867
g870
sg888
g891
sg895
g898
sg902
g905
ssg916
F1.0
sg917
g918
((lp5151
g853
atp5152
Rp5153
ss(g109
g578
tp5154
(dp5155
g851
(dp5156
g853
g856
sg860
g863
sg874
g877
sg888
g891
sg902
g905
sg909
g912
ssg916
F1.0
sg917
g918
((lp5157
g853
atp5158
Rp5159
ss(g111
g578
tp5160
(dp5161
g851
(dp5162
g888
g891
sg853
g856
sg902
g905
sg860
g863
ssg916
F1.0
sg917
g918
((lp5163
g853
atp5164
Rp5165
ss(g111
g571
tp5166
(dp5167
g851
(dp5168
g888
g891
sg853
g856
sg902
g905
sg860
g863
ssg916
F1.0
sg917
g918
((lp5169
g853
atp5170
Rp5171
ss(g99
g578
tp5172
(dp5173
g851
(dp5174
g853
g856
sg860
g863
sg867
g870
sg888
g891
sg895
g898
sg902
g905
ssg916
F1.0
sg917
g918
((lp5175
g853
atp5176
Rp5177
ss(g103
g578
tp5178
(dp5179
g851
(dp5180
g853
g856
sg860
g863
sg867
g870
sg874
g877
sg881
g884
sg888
g891
sg895
g898
sg902
g905
sg909
g912
ssg916
F1.0
sg917
g918
((lp5181
g853
atp5182
Rp5183
ss(g109
g571
tp5184
(dp5185
g851
(dp5186
g853
g856
sg860
g863
sg874
g877
sg888
g891
sg902
g905
sg909
g912
ssg916
F1.0
sg917
g918
((lp5187
g853
atp5188
Rp5189
sssg840
(dp5190
(g122
g583
tp5191
(dp5192
g851
(dp5193
g881
g884
sg888
g891
sg867
g870
sg909
g912
ssg916
F1.0
sg917
g918
((lp5194
g881
atp5195
Rp5196
ss(g91
g583
tp5197
(dp5198
g851
(dp5199
g860
g863
sg867
g870
sg874
g877
sg881
g884
sg888
g891
sg909
g912
ssg916
F1.0
sg917
g918
((lp5200
g881
atp5201
Rp5202
ss(g126
g583
tp5203
(dp5204
g851
(dp5205
g867
g870
sg881
g884
sg888
g891
sg895
g898
sg902
g905
sg909
g912
ssg916
F1.0
sg917
g918
((lp5206
g881
atp5207
Rp5208
ss(g117
g583
tp5209
(dp5210
g851
(dp5211
g853
g856
sg860
g863
sg867
g870
sg874
g877
sg881
g884
sg888
g891
sg895
g898
sg902
g905
sg909
g912
ssg916
F1.0
sg917
g918
((lp5212
g881
atp5213
Rp5214
ssssS'edge'
p5215
g847
sS'graph'
p5216
(dp5217
S'symbols'
p5218
g918
((lp5219
tp5220
Rp5221
sS'initial'
p5222
g918
((lp5223
g802
ag4270
ag724
ag643
ag766
ag649
ag703
ag629
ag840
ag590
ag798
ag732
ag669
ag599
ag736
ag653
ag657
ag595
ag764
ag623
ag675
ag601
ag639
ag4414
a(g116
g583
tp5224
ag722
ag697
ag818
ag701
ag616
ag760
ag689
ag645
ag762
ag824
ag695
ag752
a(g92
g583
tp5225
ag1415
ag3557
ag768
ag705
ag677
ag770
ag584
ag800
ag728
ag699
ag776
atp5226
Rp5227
sS'type'
p5228
S'hard_buchi'
p5229
sS'accept'
p5230
g918
((lp5231
g579
ag774
ag834
ag718
ag816
ag663
ag612
ag720
ag830
ag673
ag756
ag655
atp5232
Rp5233
ssS'adjlist_dict_factory'
p5234
g844
sS'type'
p5235
g5229
sS'pred'
p5236
(dp5237
g568
(dp5238
(g88
g707
tp5239
g1629
s(g109
g707
tp5240
g850
s(g90
g707
tp5241
g2138
s(g106
g707
tp5242
g4623
s(g95
g707
tp5243
g1841
ssg572
(dp5244
(g119
g592
tp5245
g962
s(g86
g592
tp5246
g4391
s(g107
g592
tp5247
g4976
ssg574
(dp5248
(g91
g707
tp5249
g981
s(g111
g707
tp5250
g3529
s(g121
g707
tp5251
g3111
s(g127
g707
tp5252
g4746
ssg576
(dp5253
(g116
g707
tp5254
g3588
s(g105
g707
tp5255
g1018
ssg579
(dp5256
(g121
g592
tp5257
g2508
s(g88
g592
tp5258
g1155
s(g95
g592
tp5259
g4507
s(g111
g592
tp5260
g2335
s(g106
g592
tp5261
g3908
s(g109
g592
tp5262
g1204
ssg581
(dp5263
g810
g4697
sg726
g3362
s(g112
g707
tp5264
g2687
s(g124
g592
tp5265
g1866
s(g102
g592
tp5266
g1075
s(g102
g707
tp5267
g4317
s(g124
g707
tp5268
g5056
ssg584
(dp5269
(g95
g603
tp5270
g1100
s(g109
Vaccept_S1
p5271
tp5272
g3185
s(g121
g5271
tp5273
g4995
s(g111
g5271
tp5274
g2206
s(g95
g5271
tp5275
g1026
s(g111
g603
tp5276
g3320
s(g121
g603
tp5277
g2558
ssg586
(dp5278
g5261
g3914
s(g90
g592
tp5279
g1653
sg5258
g1161
ssg588
(dp5280
(g99
g592
tp5281
g3491
sg5261
g3920
sg5259
g4513
sg5260
g2341
sg5257
g2514
sg5279
g1681
s(g103
g592
tp5282
g5185
sg5258
g1167
ssg590
(dp5283
(g126
g5271
tp5284
g5099
s(g100
g603
tp5285
g1223
s(g126
g603
tp5286
g4007
s(g112
g603
tp5287
g4221
s(g100
g5271
tp5288
g2545
ssg593
(dp5289
(g89
g707
tp5290
g4927
s(g115
g707
tp5291
g3613
s(g110
g707
tp5292
g2071
s(g120
g592
tp5293
g1822
s(g120
g707
tp5294
g3718
sg772
g4148
sg593
g1251
s(g86
g707
tp5295
g4458
s(g129
g707
tp5296
g3656
s(g118
g707
tp5297
g3816
s(g115
g592
tp5298
g3411
s(g110
g592
tp5299
g1523
s(g108
g707
tp5300
g4252
ssg595
(dp5301
(g96
g603
tp5302
g4063
s(g106
g603
tp5303
g1791
ssg597
(dp5304
(g126
g592
tp5305
g3068
s(g112
g592
tp5306
g2712
ssg599
(dp5307
(g86
g603
tp5308
g4616
s(g89
g603
tp5309
g2465
s(g89
g5271
tp5310
g2366
s(g119
g603
tp5311
g4829
s(g108
g603
tp5312
g2039
s(g107
g603
tp5313
g1366
s(g93
g603
tp5314
g2008
ssg601
(dp5315
(g124
g603
tp5316
g4914
s(g102
g603
tp5317
g1403
ssg604
(dp5318
g604
g1416
s(g98
g603
tp5319
g4545
ssg606
(dp5320
(g113
g603
tp5321
g3277
s(g123
g603
tp5322
g2237
s(g104
g603
tp5323
g2090
s(g105
g603
tp5324
g2954
s(g125
g603
tp5325
g2886
ssg608
(dp5326
(g101
g707
tp5327
g4842
s(g114
g707
tp5328
g1486
sg714
g3124
ssg610
(dp5329
g5291
g3601
sg5296
g3644
sg5299
g1517
sg772
g4142
sg5297
g3804
sg5292
g2059
sg5264
g2663
sg5306
g2706
sg5294
g3730
sg5266
g1093
sg5298
g3417
sg5267
g4299
ssg612
(dp5330
g5299
g1511
s(g100
g592
tp5331
g1317
sg5305
g3056
sg5306
g2700
s(g129
g592
tp5332
g3148
s(g122
g592
tp5333
g1959
ssg614
(dp5334
g5250
g3541
sg5249
g993
s(g99
g707
tp5335
g2607
s(g122
g707
tp5336
g1591
ssg616
(dp5337
g780
g4286
s(g130
g603
tp5338
g1616
ssg619
(dp5339
g5270
g1124
sg5242
g4629
sg5239
g1635
sg5272
g3197
sg5303
g1797
s(g109
g603
tp5340
g3767
sg5275
g1050
sg5241
g2133
s(g88
g603
tp5341
g3927
s(g132
g707
tp5342
g2743
s(g103
g5271
tp5343
g3853
s(g131
g707
tp5344
g4379
ssg621
(dp5345
g5279
g1676
sg5245
g940
ssg623
(dp5346
(g127
g603
tp5347
g1688
sg5273
g4989
s(g128
g603
tp5348
g4576
ssg625
(dp5349
(g132
g603
tp5350
g1268
s(g131
g603
tp5351
g4088
sg5302
g4045
ssg627
(dp5352
(g103
g603
tp5353
g1922
sg5308
g4606
s(g107
g707
tp5354
g4727
sg5310
g2384
sg5311
g4823
s(g90
g603
tp5355
g2157
sg5309
g2459
s(g119
g707
tp5356
g1755
sg5313
g1354
s(g125
g707
tp5357
g4336
sg5343
g3847
s(g123
g707
tp5358
g1891
ssg629
(dp5359
g5270
g1130
sg5272
g3227
sg5275
g1056
ssg631
(dp5360
g5291
g3595
s(g98
g592
tp5361
g4520
sg708
g3032
sg5295
g4446
sg5294
g3736
s(g98
g707
tp5362
g5124
sg5293
g1816
sg5292
g2053
sg772
g4131
sg5298
g3405
sg5300
g4234
ssg633
(dp5363
g5243
g1847
sg5242
g4641
ssg635
(dp5364
g726
g3356
sg810
g4708
sg5268
g5050
sg5265
g1878
ssg637
(dp5365
g606
g1462
sg5322
g2267
sg625
g1732
sg5355
g2193
s(g104
g707
tp5366
g2818
sg5351
g4112
sg5323
g2120
sg5341
g3957
sg5344
g4367
sg5358
g1909
sg5325
g2916
s(g92
g707
tp5367
g2286
ssg639
(dp5368
g5353
g1916
sg5310
g2348
s(g99
g5271
tp5369
g4771
sg5340
g3761
sg5272
g3191
s(g118
g5271
tp5370
g3240
sg5274
g2200
sg5343
g3835
s(g118
g603
tp5371
g3380
s(g99
g603
tp5372
g3970
ssg641
(dp5373
g5305
g3062
sg5332
g3154
sg5331
g1323
ssg643
(dp5374
g604
g1426
sg5312
g2033
s(g114
g603
tp5375
g3003
sg5314
g2014
ssg645
(dp5376
g604
g1421
sg5312
g2027
s(g120
g603
tp5377
g2768
sg5319
g4551
ssg647
(dp5378
g5291
g3619
sg5296
g3662
sg5294
g3742
sg5297
g3822
sg5264
g2669
sg772
g4153
sg5267
g4305
ssg649
(dp5379
g5322
g2255
sg5351
g4106
sg625
g1727
sg606
g1456
sg5325
g2904
ssg651
(dp5380
g5353
g1940
sg5356
g1761
sg5241
g2144
sg5310
g2360
sg5355
g2181
sg5340
g3785
sg5272
g3215
sg5239
g1641
sg5341
g3951
sg5358
g1903
sg5343
g3871
sg5344
g4373
ssg653
(dp5381
g5353
g1946
sg5272
g3203
sg5341
g3939
sg5340
g3791
sg5310
g2372
sg5343
g3859
ssg655
(dp5382
g5281
g3479
sg5259
g4501
sg5257
g2490
sg5260
g2317
sg5262
g1189
sg5282
g5161
ssg657
(dp5383
g625
g1722
sg5351
g4094
sg606
g1450
sg5341
g3933
sg5325
g2892
sg5323
g2096
sg5355
g2163
ssg659
(dp5384
g625
g1742
sg5351
g4124
s(g96
g707
tp5385
g2644
sg5350
g1304
sg5302
g4081
sg5367
g2292
ssg661
(dp5386
g5257
g2496
sg5281
g3473
sg5262
g1173
sg5259
g4495
sg5282
g5167
ssg663
(dp5387
g593
g1240
sg5245
g946
sg5246
g4386
s(g118
g592
tp5388
g3675
sg5247
g4958
s(g89
g592
tp5389
g4867
ssg665
(dp5390
(g113
g707
tp5391
g4685
sg714
g3130
sg5328
g1492
s(g93
g707
tp5392
g2403
sg5327
g4848
ssg667
(dp5393
g5239
g1647
sg5240
g928
sg5356
g1766
sg5241
g2150
s(g103
g707
tp5394
g2434
ssg669
(dp5395
g5308
g4601
sg5353
g1934
sg5310
g2378
sg5369
g4783
sg5309
g2453
sg5370
g3258
sg5343
g3841
sg5371
g3386
sg740
g3552
ssg671
(dp5396
g5260
g2323
sg5262
g1194
sg5259
g4477
ssg673
(dp5397
g5305
g3050
sg5306
g2718
sg5331
g1311
ssg675
(dp5398
g5347
g1706
sg5273
g5013
sg5274
g2224
sg5275
g1068
sg5276
g3326
sg5277
g2570
ssg677
(dp5399
(g110
g603
tp5400
g3436
sg5286
g4001
sg5284
g5075
s(g129
g5271
tp5401
g1560
s(g129
g603
tp5402
g2589
sg5285
g1217
sg5288
g2539
s(g122
g5271
tp5403
g4178
sg5287
g4215
ssg679
(dp5404
g5240
g934
sg5394
g2440
sg5335
g2613
sg5336
g1597
sg5249
g987
sg5250
g3535
ssg681
(dp5405
g5350
g1280
sg5302
g4057
sg5385
g2650
ssg683
(dp5406
g5267
g4311
ssg685
(dp5407
g5266
g1087
sg5264
g2681
sg5306
g2724
sg5267
g4323
ssg687
(dp5408
g5350
g1298
sg5342
g2737
sg5302
g4075
sg5303
g1803
sg5385
g2638
ssg689
(dp5409
g790
g4427
s(g115
g603
tp5410
g4032
sg5377
g2780
sg5319
g4557
ssg691
(dp5411
g5293
g1828
s(g108
g592
tp5412
g2805
s(g93
g592
tp5413
g4666
ssg693
(dp5414
g625
g1717
sg5322
g2249
sg606
g1444
sg5366
g2830
sg5351
g4100
sg5323
g2102
sg5325
g2898
sg5367
g2298
ssg695
(dp5415
(g122
g603
tp5416
g2837
sg5402
g2583
sg5286
g3995
sg5288
g2521
sg5401
g1542
s(g91
g603
tp5417
g2929
s(g117
g603
tp5418
g5192
sg5284
g5069
sg5403
g4172
sg5285
g1211
ssg697
(dp5419
g780
g4281
s(g101
g603
tp5420
g3510
s(g85
g603
tp5421
g2874
sg5338
g1622
ssg699
(dp5422
g606
g1438
sg5321
g3289
sg5324
g2966
sg5355
g2175
sg5322
g2243
sg5323
g2108
sg5311
g4807
sg5313
g1372
ssg701
(dp5423
g5416
g2843
sg5347
g1694
sg5417
g2935
sg5273
g5001
sg5418
g5198
sg5284
g5087
sg5403
g4184
sg5348
g4570
ssg703
(dp5424
g5420
g3516
sg5321
g3295
sg5421
g2879
sg5324
g2972
ssg705
(dp5425
g604
g1431
sg5375
g3009
ssg708
(dp5426
g708
g3038
sg5328
g1498
ssg710
(dp5427
g5331
g1329
ssg712
(dp5428
g5252
g4758
sg5243
g1853
sg5251
g3105
ssg714
(dp5429
g714
g3118
sg5327
g4854
ssg716
(dp5430
g5331
g1347
sg5299
g1535
sg5306
g2730
sg5305
g3086
sg5333
g1989
ssg718
(dp5431
g5281
g3455
sg5261
g3896
sg5259
g4483
sg5260
g2305
sg5257
g2478
sg5279
g1658
sg5262
g1179
sg5282
g5155
sg5258
g1143
ssg720
(dp5432
g593
g1256
sg5299
g1529
sg5388
g3699
sg5333
g1977
sg5332
g3160
sg5389
g4879
ssg722
(dp5433
g5421
g2862
sg5420
g3498
sg5313
g1360
sg5314
g2002
sg5321
g3283
sg5324
g2960
sg5311
g4817
ssg724
(dp5434
g5347
g1700
sg5416
g2855
sg5277
g2576
sg5274
g2230
sg5417
g2947
sg5403
g4202
sg5369
g4801
sg5273
g5019
sg5275
g1062
sg5372
g3988
sg5276
g3332
ssg726
(dp5435
g5268
g5038
sg5362
g5130
ssg728
(dp5436
g5400
g3442
sg5401
g1572
sg5369
g4789
sg5402
g2601
sg5370
g3270
sg5403
g4190
sg740
g3563
sg5371
g3398
ssg730
(dp5437
g5294
g3754
sg5291
g3631
sg5292
g2083
sg810
g4714
sg772
g4165
sg5361
g4538
sg726
g3368
sg5264
g2693
sg5265
g1884
sg5362
g5142
sg5266
g1081
sg5298
g3423
sg5267
g4329
sg5268
g5062
ssg732
(dp5438
g5400
g3430
sg5401
g1548
sg5410
g4020
sg5317
g1391
sg5288
g2527
sg5287
g4209
ssg734
(dp5439
g5388
g3693
sg5332
g3142
sg5282
g5149
sg5389
g4884
sg5333
g1953
ssg736
(dp5440
g5421
g2868
sg780
g4276
sg5314
g1996
sg5420
g3504
sg5338
g1610
sg5375
g2997
ssg738
(dp5441
g5240
g922
sg5252
g4764
sg5249
g975
sg5251
g3093
sg5243
g1859
sg5250
g3523
ssg740
(dp5442
g5400
g3448
sg5401
g1554
sg5410
g4038
sg5370
g3252
sg740
g3558
sg5377
g2774
ssg742
(dp5443
g606
g1473
sg5321
g3307
sg5323
g2126
sg5366
g2824
sg5322
g2273
sg5324
g2984
sg5255
g1012
sg5325
g2922
sg5254
g3582
ssg744
(dp5444
g726
g3339
sg5294
g3724
sg5362
g5106
sg5292
g2046
sg5264
g2657
sg772
g4136
sg5267
g4293
sg5268
g5026
ssg746
(dp5445
g5296
g3638
sg5297
g3798
sg5336
g1579
sg5335
g2619
ssg748
(dp5446
g593
g1235
sg5332
g3166
sg5299
g1505
sg5389
g4861
sg5333
g1971
ssg750
(dp5447
g5291
g3607
sg708
g3043
sg5295
g4470
sg772
g4159
sg5292
g2077
sg5362
g5136
sg5300
g4246
ssg752
(dp5448
g5270
g1118
sg5272
g3209
sg5372
g3976
sg5274
g2218
sg5340
g3779
sg5343
g3865
sg5369
g4777
sg5273
g5007
sg5275
g1044
sg5276
g3314
sg5277
g2564
ssg754
(dp5449
g5290
g4939
sg5336
g1585
sg5296
g3650
sg5335
g2625
sg5394
g2428
sg5297
g3810
ssg756
(dp5450
g5281
g3485
sg5279
g1670
sg5282
g5179
sg5388
g3705
sg5245
g956
sg5389
g4895
ssg758
(dp5451
g5258
g1137
sg5261
g3890
ssg760
(dp5452
g5270
g1112
sg5272
g3221
sg5303
g1785
sg5340
g3773
sg5343
g3883
sg5275
g1038
ssg762
(dp5453
g5416
g2849
sg5402
g2595
sg5401
g1566
sg5274
g2212
sg5417
g2941
sg5370
g3264
sg5403
g4196
sg5369
g4795
sg5372
g3982
sg5371
g3392
ssg764
(dp5454
g5286
g4013
sg5418
g5204
sg5284
g5081
sg5288
g2533
sg5285
g1229
ssg766
(dp5455
g790
g4421
sg5410
g4026
sg5316
g4908
sg5317
g1397
ssg768
(dp5456
g5350
g1286
ssg770
(dp5457
g5350
g1274
sg625
g1712
sg5341
g3945
sg5302
g4051
sg5303
g1779
ssg772
(dp5458
g5290
g4951
sg5295
g4452
sg5294
g3748
sg5300
g4264
sg5292
g2065
sg5296
g3668
sg5297
g3828
sg5291
g3625
ssg774
(dp5459
g5305
g3080
sg5333
g1983
sg5331
g1341
sg5332
g3178
ssg776
(dp5460
g5287
g4227
sg5288
g2551
sg5317
g1409
ssg778
(dp5461
g5300
g4240
sg5328
g1480
sg5295
g4440
sg5392
g2397
sg708
g3015
ssg780
(dp5462
g780
g4271
sg5338
g1604
sg5375
g2991
ssg782
(dp5463
g726
g3373
sg5264
g2675
sg5268
g5044
ssg784
(dp5464
g606
g1468
sg5321
g3301
sg5323
g2114
sg5355
g2187
sg5255
g1006
sg5322
g2261
sg5324
g2978
sg5311
g4812
sg5357
g4342
sg5358
g1897
sg5313
g1384
sg5366
g2812
sg5325
g2910
sg5254
g3570
ssg786
(dp5465
g625
g1737
sg5350
g1292
sg5303
g1809
sg5385
g2632
sg5351
g4118
sg5302
g4069
sg5341
g3963
sg5344
g4361
sg5342
g2755
sg5367
g2280
ssg788
(dp5466
g593
g1245
sg5413
g4654
sg5246
g4397
sg5293
g1834
sg5247
g4970
sg5412
g2793
ssg790
(dp5467
g790
g4415
sg5316
g4902
ssg792
(dp5468
g5290
g4945
sg5392
g2415
sg5295
g4464
sg5354
g4739
sg5300
g4258
ssg794
(dp5469
g5260
g2311
sg5257
g2484
sg5262
g1184
sg5258
g1149
sg5261
g3902
ssg796
(dp5470
g5361
g4526
sg708
g3021
sg5362
g5112
ssg798
(dp5471
g790
g4433
sg5319
g4563
ssg800
(dp5472
g5348
g4582
ssg802
(dp5473
g5308
g4595
sg5312
g2021
sg5310
g2354
sg5309
g2447
sg5370
g3246
sg5377
g2762
sg740
g3547
ssg804
(dp5474
g5270
g1106
sg5242
g4635
sg5272
g3233
sg5303
g1773
sg5275
g1032
sg5342
g2749
ssg806
(dp5475
g5412
g2799
sg5413
g4660
ssg808
(dp5476
g5391
g4673
sg5357
g4354
sg5254
g3576
sg5255
g1000
ssg810
(dp5477
g810
g4703
sg5361
g4532
sg726
g3345
sg5268
g5032
sg5265
g1872
sg5362
g5118
ssg812
(dp5478
g5391
g4679
sg5354
g4733
sg5392
g2409
sg5357
g4348
ssg814
(dp5479
g5252
g4752
sg5251
g3099
ssg816
(dp5480
g5281
g3467
sg5282
g5173
sg5388
g3687
sg5333
g1965
sg5332
g3172
sg5389
g4889
ssg818
(dp5481
g5308
g4611
sg5353
g1928
sg5310
g2390
sg5355
g2169
sg5309
g2471
sg5313
g1378
sg5343
g3877
ssg820
(dp5482
g5391
g4691
sg714
g3135
sg5327
g4836
ssg822
(dp5483
g5388
g3711
sg593
g1261
sg5246
g4408
sg5245
g968
sg5247
g4982
ssg824
(dp5484
g5316
g4920
ssg826
(dp5485
g5290
g4933
sg5356
g1749
sg5354
g4721
sg5394
g2422
ssg828
(dp5486
g5247
g4964
sg5246
g4402
sg5413
g4648
sg5412
g2787
ssg830
(dp5487
g5260
g2329
sg5257
g2502
sg5262
g1199
sg5259
g4489
ssg832
(dp5488
g726
g3350
ssg834
(dp5489
g5305
g3074
sg5331
g1335
ssg836
(dp5490
g708
g3026
ssg838
(dp5491
g5388
g3681
sg5281
g3461
sg5389
g4873
sg5279
g1664
sg5245
g951
ssg840
(dp5492
g5284
g5093
sg5418
g5210
sg5348
g4588
sssS'adj'
p5493
g847
sbsS'verbose'
p5494
I0
sg531
F2.0
sS'execute_plan'
p5495
I00
sS'speed_controller'
p5496
NsS'env'
p5497
(ienvironment
MonotoneEnvironment
p5498
(dp5499
S'show_reg'
p5500
(lp5501
S'i'
p5502
aS'f'
p5503
aS'c'
p5504
aS'g'
p5505
asg82
(lp5506
(I3
I4
I12
I11
tp5507
a(I14
I15
I23
I22
tp5508
a(I19
I20
I28
I27
tp5509
a(I5
I6
I14
I13
tp5510
a(I44
I45
I53
I52
tp5511
a(I27
I28
I36
I35
tp5512
a(I36
I37
I45
I44
tp5513
a(I41
I42
I50
I49
tp5514
a(I46
I47
I55
I54
tp5515
a(I12
I13
I21
I20
tp5516
a(I18
I19
I27
I26
tp5517
a(I51
I52
I60
I59
tp5518
a(I54
I55
I63
I62
tp5519
a(I1
I2
I10
I9
tp5520
a(I2
I3
I11
I10
tp5521
a(I34
I35
I43
I42
tp5522
a(I24
I25
I33
I32
tp5523
a(I13
I14
I22
I21
tp5524
a(I8
I9
I17
I16
tp5525
a(I35
I36
I44
I43
tp5526
a(I38
I39
I47
I46
tp5527
a(I22
I23
I31
I30
tp5528
a(I52
I53
I61
I60
tp5529
a(I20
I21
I29
I28
tp5530
a(I11
I12
I20
I19
tp5531
a(I43
I44
I52
I51
tp5532
a(I17
I18
I26
I25
tp5533
a(I42
I43
I51
I50
tp5534
a(I16
I17
I25
I24
tp5535
a(I21
I22
I30
I29
tp5536
a(I4
I5
I13
I12
tp5537
a(I9
I10
I18
I17
tp5538
a(I30
I31
I39
I38
tp5539
a(I40
I41
I49
I48
tp5540
a(I26
I27
I35
I34
tp5541
a(I28
I29
I37
I36
tp5542
a(I10
I11
I19
I18
tp5543
a(I50
I51
I59
I58
tp5544
a(I33
I34
I42
I41
tp5545
a(I37
I38
I46
I45
tp5546
a(I0
I1
I9
I8
tp5547
a(I29
I30
I38
I37
tp5548
a(I32
I33
I41
I40
tp5549
a(I49
I50
I58
I57
tp5550
a(I48
I49
I57
I56
tp5551
a(I25
I26
I34
I33
tp5552
a(I6
I7
I15
I14
tp5553
a(I45
I46
I54
I53
tp5554
a(I53
I54
I62
I61
tp5555
asS'center'
p5556
(dp5557
sg137
g138
sS'plot_state'
p5558
I0
sS'regions'
p5559
(lp5560
S'0'
p5561
aS'1'
p5562
aS'2'
p5563
aS'3'
p5564
ag5503
ag5505
ag5503
ag5505
ag5503
aS'9'
p5565
ag5502
ag5505
ag5503
ag5502
ag5502
ag5505
ag5505
aS'17'
p5566
ag5502
ag5505
ag5503
aS'21'
p5567
ag5503
aS'23'
p5568
aS'24'
p5569
ag5505
ag5502
ag5505
ag5502
aS'29'
p5570
aS'30'
p5571
ag5502
ag5503
ag5505
ag5505
ag5503
ag5502
ag5505
ag5505
ag5503
ag5502
ag5503
ag5505
ag5505
ag5505
ag5505
aS'46'
p5572
ag5503
ag5503
asS'colors'
p5573
(dp5574
sS'reach_distance'
p5575
(dp5576
sbsS'position'
p5577
NsS'fts_state'
p5578
NsS'last_time'
p5579
F0.0
sS'name'
p5580
S'planner'
p5581
sb.